
test1.exe:     file format pei-x86-64


Disassembly of section .text:

0000000140001000 <__mingw_invalidParameterHandler>:
   140001000:	c3                   	ret
   140001001:	66 66 2e 0f 1f 84 00 	data16 cs nop WORD PTR [rax+rax*1+0x0]
   140001008:	00 00 00 00 
   14000100c:	0f 1f 40 00          	nop    DWORD PTR [rax+0x0]

0000000140001010 <pre_c_init>:
   140001010:	48 83 ec 28          	sub    rsp,0x28
   140001014:	48 8b 05 f5 44 00 00 	mov    rax,QWORD PTR [rip+0x44f5]        # 140005510 <.refptr.__mingw_initltsdrot_force>
   14000101b:	31 c9                	xor    ecx,ecx
   14000101d:	c7 00 01 00 00 00    	mov    DWORD PTR [rax],0x1
   140001023:	48 8b 05 f6 44 00 00 	mov    rax,QWORD PTR [rip+0x44f6]        # 140005520 <.refptr.__mingw_initltsdyn_force>
   14000102a:	c7 00 01 00 00 00    	mov    DWORD PTR [rax],0x1
   140001030:	48 8b 05 f9 44 00 00 	mov    rax,QWORD PTR [rip+0x44f9]        # 140005530 <.refptr.__mingw_initltssuo_force>
   140001037:	c7 00 01 00 00 00    	mov    DWORD PTR [rax],0x1
   14000103d:	48 8b 05 6c 44 00 00 	mov    rax,QWORD PTR [rip+0x446c]        # 1400054b0 <.refptr.__image_base__>
   140001044:	66 81 38 4d 5a       	cmp    WORD PTR [rax],0x5a4d
   140001049:	75 0f                	jne    14000105a <pre_c_init+0x4a>
   14000104b:	48 63 50 3c          	movsxd rdx,DWORD PTR [rax+0x3c]
   14000104f:	48 01 d0             	add    rax,rdx
   140001052:	81 38 50 45 00 00    	cmp    DWORD PTR [rax],0x4550
   140001058:	74 66                	je     1400010c0 <pre_c_init+0xb0>
   14000105a:	48 8b 05 9f 44 00 00 	mov    rax,QWORD PTR [rip+0x449f]        # 140005500 <.refptr.__mingw_app_type>
   140001061:	89 0d a5 6f 00 00    	mov    DWORD PTR [rip+0x6fa5],ecx        # 14000800c <managedapp>
   140001067:	8b 00                	mov    eax,DWORD PTR [rax]
   140001069:	85 c0                	test   eax,eax
   14000106b:	74 43                	je     1400010b0 <pre_c_init+0xa0>
   14000106d:	b9 02 00 00 00       	mov    ecx,0x2
   140001072:	e8 b1 1e 00 00       	call   140002f28 <__set_app_type>
   140001077:	e8 24 1e 00 00       	call   140002ea0 <__p__fmode>
   14000107c:	48 8b 15 5d 45 00 00 	mov    rdx,QWORD PTR [rip+0x455d]        # 1400055e0 <.refptr._fmode>
   140001083:	8b 12                	mov    edx,DWORD PTR [rdx]
   140001085:	89 10                	mov    DWORD PTR [rax],edx
   140001087:	e8 0c 1e 00 00       	call   140002e98 <__p__commode>
   14000108c:	48 8b 15 2d 45 00 00 	mov    rdx,QWORD PTR [rip+0x452d]        # 1400055c0 <.refptr._commode>
   140001093:	8b 12                	mov    edx,DWORD PTR [rdx]
   140001095:	89 10                	mov    DWORD PTR [rax],edx
   140001097:	e8 44 0b 00 00       	call   140001be0 <_setargv>
   14000109c:	48 8b 05 bd 43 00 00 	mov    rax,QWORD PTR [rip+0x43bd]        # 140005460 <.refptr._MINGW_INSTALL_DEBUG_MATHERR>
   1400010a3:	83 38 01             	cmp    DWORD PTR [rax],0x1
   1400010a6:	74 50                	je     1400010f8 <pre_c_init+0xe8>
   1400010a8:	31 c0                	xor    eax,eax
   1400010aa:	48 83 c4 28          	add    rsp,0x28
   1400010ae:	c3                   	ret
   1400010af:	90                   	nop
   1400010b0:	b9 01 00 00 00       	mov    ecx,0x1
   1400010b5:	e8 6e 1e 00 00       	call   140002f28 <__set_app_type>
   1400010ba:	eb bb                	jmp    140001077 <pre_c_init+0x67>
   1400010bc:	0f 1f 40 00          	nop    DWORD PTR [rax+0x0]
   1400010c0:	0f b7 50 18          	movzx  edx,WORD PTR [rax+0x18]
   1400010c4:	66 81 fa 0b 01       	cmp    dx,0x10b
   1400010c9:	74 45                	je     140001110 <pre_c_init+0x100>
   1400010cb:	66 81 fa 0b 02       	cmp    dx,0x20b
   1400010d0:	75 88                	jne    14000105a <pre_c_init+0x4a>
   1400010d2:	83 b8 84 00 00 00 0e 	cmp    DWORD PTR [rax+0x84],0xe
   1400010d9:	0f 86 7b ff ff ff    	jbe    14000105a <pre_c_init+0x4a>
   1400010df:	8b 90 f8 00 00 00    	mov    edx,DWORD PTR [rax+0xf8]
   1400010e5:	31 c9                	xor    ecx,ecx
   1400010e7:	85 d2                	test   edx,edx
   1400010e9:	0f 95 c1             	setne  cl
   1400010ec:	e9 69 ff ff ff       	jmp    14000105a <pre_c_init+0x4a>
   1400010f1:	0f 1f 80 00 00 00 00 	nop    DWORD PTR [rax+0x0]
   1400010f8:	48 8b 0d 01 45 00 00 	mov    rcx,QWORD PTR [rip+0x4501]        # 140005600 <.refptr._matherr>
   1400010ff:	e8 4c 12 00 00       	call   140002350 <__mingw_setusermatherr>
   140001104:	31 c0                	xor    eax,eax
   140001106:	48 83 c4 28          	add    rsp,0x28
   14000110a:	c3                   	ret
   14000110b:	0f 1f 44 00 00       	nop    DWORD PTR [rax+rax*1+0x0]
   140001110:	83 78 74 0e          	cmp    DWORD PTR [rax+0x74],0xe
   140001114:	0f 86 40 ff ff ff    	jbe    14000105a <pre_c_init+0x4a>
   14000111a:	44 8b 80 e8 00 00 00 	mov    r8d,DWORD PTR [rax+0xe8]
   140001121:	31 c9                	xor    ecx,ecx
   140001123:	45 85 c0             	test   r8d,r8d
   140001126:	0f 95 c1             	setne  cl
   140001129:	e9 2c ff ff ff       	jmp    14000105a <pre_c_init+0x4a>
   14000112e:	66 90                	xchg   ax,ax

0000000140001130 <pre_cpp_init>:
   140001130:	48 83 ec 38          	sub    rsp,0x38
   140001134:	48 8b 05 d5 44 00 00 	mov    rax,QWORD PTR [rip+0x44d5]        # 140005610 <.refptr._newmode>
   14000113b:	4c 8d 05 d6 6e 00 00 	lea    r8,[rip+0x6ed6]        # 140008018 <envp>
   140001142:	48 8d 15 d7 6e 00 00 	lea    rdx,[rip+0x6ed7]        # 140008020 <argv>
   140001149:	48 8d 0d d8 6e 00 00 	lea    rcx,[rip+0x6ed8]        # 140008028 <argc>
   140001150:	8b 00                	mov    eax,DWORD PTR [rax]
   140001152:	89 05 ac 6e 00 00    	mov    DWORD PTR [rip+0x6eac],eax        # 140008004 <startinfo>
   140001158:	48 8b 05 71 44 00 00 	mov    rax,QWORD PTR [rip+0x4471]        # 1400055d0 <.refptr._dowildcard>
   14000115f:	44 8b 08             	mov    r9d,DWORD PTR [rax]
   140001162:	48 8d 05 9b 6e 00 00 	lea    rax,[rip+0x6e9b]        # 140008004 <startinfo>
   140001169:	48 89 44 24 20       	mov    QWORD PTR [rsp+0x20],rax
   14000116e:	e8 cd 1a 00 00       	call   140002c40 <__getmainargs>
   140001173:	90                   	nop
   140001174:	48 83 c4 38          	add    rsp,0x38
   140001178:	c3                   	ret
   140001179:	0f 1f 80 00 00 00 00 	nop    DWORD PTR [rax+0x0]

0000000140001180 <__tmainCRTStartup>:
   140001180:	41 54                	push   r12
   140001182:	55                   	push   rbp
   140001183:	57                   	push   rdi
   140001184:	56                   	push   rsi
   140001185:	53                   	push   rbx
   140001186:	48 83 ec 20          	sub    rsp,0x20
   14000118a:	48 8b 1d cf 43 00 00 	mov    rbx,QWORD PTR [rip+0x43cf]        # 140005560 <.refptr.__native_startup_lock>
   140001191:	31 ff                	xor    edi,edi
   140001193:	65 48 8b 04 25 30 00 	mov    rax,QWORD PTR gs:0x30
   14000119a:	00 00 
   14000119c:	48 8b 2d 35 81 00 00 	mov    rbp,QWORD PTR [rip+0x8135]        # 1400092d8 <__imp_Sleep>
   1400011a3:	48 8b 70 08          	mov    rsi,QWORD PTR [rax+0x8]
   1400011a7:	eb 17                	jmp    1400011c0 <__tmainCRTStartup+0x40>
   1400011a9:	0f 1f 80 00 00 00 00 	nop    DWORD PTR [rax+0x0]
   1400011b0:	48 39 c6             	cmp    rsi,rax
   1400011b3:	0f 84 67 01 00 00    	je     140001320 <__tmainCRTStartup+0x1a0>
   1400011b9:	b9 e8 03 00 00       	mov    ecx,0x3e8
   1400011be:	ff d5                	call   rbp
   1400011c0:	48 89 f8             	mov    rax,rdi
   1400011c3:	f0 48 0f b1 33       	lock cmpxchg QWORD PTR [rbx],rsi
   1400011c8:	48 85 c0             	test   rax,rax
   1400011cb:	75 e3                	jne    1400011b0 <__tmainCRTStartup+0x30>
   1400011cd:	48 8b 35 9c 43 00 00 	mov    rsi,QWORD PTR [rip+0x439c]        # 140005570 <.refptr.__native_startup_state>
   1400011d4:	31 ff                	xor    edi,edi
   1400011d6:	8b 06                	mov    eax,DWORD PTR [rsi]
   1400011d8:	83 f8 01             	cmp    eax,0x1
   1400011db:	0f 84 56 01 00 00    	je     140001337 <__tmainCRTStartup+0x1b7>
   1400011e1:	8b 06                	mov    eax,DWORD PTR [rsi]
   1400011e3:	85 c0                	test   eax,eax
   1400011e5:	0f 84 b5 01 00 00    	je     1400013a0 <__tmainCRTStartup+0x220>
   1400011eb:	c7 05 13 6e 00 00 01 	mov    DWORD PTR [rip+0x6e13],0x1        # 140008008 <has_cctor>
   1400011f2:	00 00 00 
   1400011f5:	8b 06                	mov    eax,DWORD PTR [rsi]
   1400011f7:	83 f8 01             	cmp    eax,0x1
   1400011fa:	0f 84 4c 01 00 00    	je     14000134c <__tmainCRTStartup+0x1cc>
   140001200:	85 ff                	test   edi,edi
   140001202:	0f 84 65 01 00 00    	je     14000136d <__tmainCRTStartup+0x1ed>
   140001208:	48 8b 05 91 42 00 00 	mov    rax,QWORD PTR [rip+0x4291]        # 1400054a0 <.refptr.__dyn_tls_init_callback>
   14000120f:	48 8b 00             	mov    rax,QWORD PTR [rax]
   140001212:	48 85 c0             	test   rax,rax
   140001215:	74 0c                	je     140001223 <__tmainCRTStartup+0xa3>
   140001217:	45 31 c0             	xor    r8d,r8d
   14000121a:	ba 02 00 00 00       	mov    edx,0x2
   14000121f:	31 c9                	xor    ecx,ecx
   140001221:	ff d0                	call   rax
   140001223:	e8 88 0d 00 00       	call   140001fb0 <_pei386_runtime_relocator>
   140001228:	48 8b 0d c1 43 00 00 	mov    rcx,QWORD PTR [rip+0x43c1]        # 1400055f0 <.refptr._gnu_exception_handler>
   14000122f:	ff 15 9b 80 00 00    	call   QWORD PTR [rip+0x809b]        # 1400092d0 <__imp_SetUnhandledExceptionFilter>
   140001235:	48 8b 15 14 43 00 00 	mov    rdx,QWORD PTR [rip+0x4314]        # 140005550 <.refptr.__mingw_oldexcpt_handler>
   14000123c:	48 8d 0d bd fd ff ff 	lea    rcx,[rip+0xfffffffffffffdbd]        # 140001000 <__mingw_invalidParameterHandler>
   140001243:	48 89 02             	mov    QWORD PTR [rdx],rax
   140001246:	e8 e5 1c 00 00       	call   140002f30 <_set_invalid_parameter_handler>
   14000124b:	e8 70 0b 00 00       	call   140001dc0 <_fpreset>
   140001250:	8b 1d d2 6d 00 00    	mov    ebx,DWORD PTR [rip+0x6dd2]        # 140008028 <argc>
   140001256:	8d 7b 01             	lea    edi,[rbx+0x1]
   140001259:	48 63 ff             	movsxd rdi,edi
   14000125c:	48 c1 e7 03          	shl    rdi,0x3
   140001260:	48 89 f9             	mov    rcx,rdi
   140001263:	e8 20 1d 00 00       	call   140002f88 <malloc>
   140001268:	85 db                	test   ebx,ebx
   14000126a:	48 8b 2d af 6d 00 00 	mov    rbp,QWORD PTR [rip+0x6daf]        # 140008020 <argv>
   140001271:	49 89 c4             	mov    r12,rax
   140001274:	0f 8e 46 01 00 00    	jle    1400013c0 <__tmainCRTStartup+0x240>
   14000127a:	48 83 ef 08          	sub    rdi,0x8
   14000127e:	31 db                	xor    ebx,ebx
   140001280:	48 8b 4c 1d 00       	mov    rcx,QWORD PTR [rbp+rbx*1+0x0]
   140001285:	e8 f6 1b 00 00       	call   140002e80 <strlen>
   14000128a:	48 8d 70 01          	lea    rsi,[rax+0x1]
   14000128e:	48 89 f1             	mov    rcx,rsi
   140001291:	e8 f2 1c 00 00       	call   140002f88 <malloc>
   140001296:	49 89 f0             	mov    r8,rsi
   140001299:	49 89 04 1c          	mov    QWORD PTR [r12+rbx*1],rax
   14000129d:	48 8b 54 1d 00       	mov    rdx,QWORD PTR [rbp+rbx*1+0x0]
   1400012a2:	48 89 c1             	mov    rcx,rax
   1400012a5:	48 83 c3 08          	add    rbx,0x8
   1400012a9:	e8 aa 1c 00 00       	call   140002f58 <memcpy>
   1400012ae:	48 39 df             	cmp    rdi,rbx
   1400012b1:	75 cd                	jne    140001280 <__tmainCRTStartup+0x100>
   1400012b3:	4c 01 e7             	add    rdi,r12
   1400012b6:	48 c7 07 00 00 00 00 	mov    QWORD PTR [rdi],0x0
   1400012bd:	4c 89 25 5c 6d 00 00 	mov    QWORD PTR [rip+0x6d5c],r12        # 140008020 <argv>
   1400012c4:	e8 f7 08 00 00       	call   140001bc0 <__main>
   1400012c9:	48 8b 05 f0 41 00 00 	mov    rax,QWORD PTR [rip+0x41f0]        # 1400054c0 <.refptr.__imp___initenv>
   1400012d0:	4c 8b 05 41 6d 00 00 	mov    r8,QWORD PTR [rip+0x6d41]        # 140008018 <envp>
   1400012d7:	8b 0d 4b 6d 00 00    	mov    ecx,DWORD PTR [rip+0x6d4b]        # 140008028 <argc>
   1400012dd:	48 8b 00             	mov    rax,QWORD PTR [rax]
   1400012e0:	4c 89 00             	mov    QWORD PTR [rax],r8
   1400012e3:	48 8b 15 36 6d 00 00 	mov    rdx,QWORD PTR [rip+0x6d36]        # 140008020 <argv>
   1400012ea:	e8 61 01 00 00       	call   140001450 <main>
   1400012ef:	8b 0d 17 6d 00 00    	mov    ecx,DWORD PTR [rip+0x6d17]        # 14000800c <managedapp>
   1400012f5:	89 05 15 6d 00 00    	mov    DWORD PTR [rip+0x6d15],eax        # 140008010 <mainret>
   1400012fb:	85 c9                	test   ecx,ecx
   1400012fd:	0f 84 c5 00 00 00    	je     1400013c8 <__tmainCRTStartup+0x248>
   140001303:	8b 15 ff 6c 00 00    	mov    edx,DWORD PTR [rip+0x6cff]        # 140008008 <has_cctor>
   140001309:	85 d2                	test   edx,edx
   14000130b:	74 73                	je     140001380 <__tmainCRTStartup+0x200>
   14000130d:	48 83 c4 20          	add    rsp,0x20
   140001311:	5b                   	pop    rbx
   140001312:	5e                   	pop    rsi
   140001313:	5f                   	pop    rdi
   140001314:	5d                   	pop    rbp
   140001315:	41 5c                	pop    r12
   140001317:	c3                   	ret
   140001318:	0f 1f 84 00 00 00 00 	nop    DWORD PTR [rax+rax*1+0x0]
   14000131f:	00 
   140001320:	48 8b 35 49 42 00 00 	mov    rsi,QWORD PTR [rip+0x4249]        # 140005570 <.refptr.__native_startup_state>
   140001327:	bf 01 00 00 00       	mov    edi,0x1
   14000132c:	8b 06                	mov    eax,DWORD PTR [rsi]
   14000132e:	83 f8 01             	cmp    eax,0x1
   140001331:	0f 85 aa fe ff ff    	jne    1400011e1 <__tmainCRTStartup+0x61>
   140001337:	b9 1f 00 00 00       	mov    ecx,0x1f
   14000133c:	e8 1f 1a 00 00       	call   140002d60 <_amsg_exit>
   140001341:	8b 06                	mov    eax,DWORD PTR [rsi]
   140001343:	83 f8 01             	cmp    eax,0x1
   140001346:	0f 85 b4 fe ff ff    	jne    140001200 <__tmainCRTStartup+0x80>
   14000134c:	48 8b 15 3d 42 00 00 	mov    rdx,QWORD PTR [rip+0x423d]        # 140005590 <.refptr.__xc_z>
   140001353:	48 8b 0d 26 42 00 00 	mov    rcx,QWORD PTR [rip+0x4226]        # 140005580 <.refptr.__xc_a>
   14000135a:	e8 c1 1b 00 00       	call   140002f20 <_initterm>
   14000135f:	85 ff                	test   edi,edi
   140001361:	c7 06 02 00 00 00    	mov    DWORD PTR [rsi],0x2
   140001367:	0f 85 9b fe ff ff    	jne    140001208 <__tmainCRTStartup+0x88>
   14000136d:	31 c0                	xor    eax,eax
   14000136f:	48 87 03             	xchg   QWORD PTR [rbx],rax
   140001372:	e9 91 fe ff ff       	jmp    140001208 <__tmainCRTStartup+0x88>
   140001377:	66 0f 1f 84 00 00 00 	nop    WORD PTR [rax+rax*1+0x0]
   14000137e:	00 00 
   140001380:	e8 63 1b 00 00       	call   140002ee8 <_cexit>
   140001385:	8b 05 85 6c 00 00    	mov    eax,DWORD PTR [rip+0x6c85]        # 140008010 <mainret>
   14000138b:	48 83 c4 20          	add    rsp,0x20
   14000138f:	5b                   	pop    rbx
   140001390:	5e                   	pop    rsi
   140001391:	5f                   	pop    rdi
   140001392:	5d                   	pop    rbp
   140001393:	41 5c                	pop    r12
   140001395:	c3                   	ret
   140001396:	66 2e 0f 1f 84 00 00 	cs nop WORD PTR [rax+rax*1+0x0]
   14000139d:	00 00 00 
   1400013a0:	48 8b 15 09 42 00 00 	mov    rdx,QWORD PTR [rip+0x4209]        # 1400055b0 <.refptr.__xi_z>
   1400013a7:	c7 06 01 00 00 00    	mov    DWORD PTR [rsi],0x1
   1400013ad:	48 8b 0d ec 41 00 00 	mov    rcx,QWORD PTR [rip+0x41ec]        # 1400055a0 <.refptr.__xi_a>
   1400013b4:	e8 67 1b 00 00       	call   140002f20 <_initterm>
   1400013b9:	e9 37 fe ff ff       	jmp    1400011f5 <__tmainCRTStartup+0x75>
   1400013be:	66 90                	xchg   ax,ax
   1400013c0:	48 89 c7             	mov    rdi,rax
   1400013c3:	e9 ee fe ff ff       	jmp    1400012b6 <__tmainCRTStartup+0x136>
   1400013c8:	89 c1                	mov    ecx,eax
   1400013ca:	e8 a1 13 00 00       	call   140002770 <exit>
   1400013cf:	90                   	nop

00000001400013d0 <WinMainCRTStartup>:
   1400013d0:	48 83 ec 28          	sub    rsp,0x28

00000001400013d4 <.l_startw>:
   1400013d4:	48 8b 05 25 41 00 00 	mov    rax,QWORD PTR [rip+0x4125]        # 140005500 <.refptr.__mingw_app_type>
   1400013db:	c7 00 01 00 00 00    	mov    DWORD PTR [rax],0x1
   1400013e1:	e8 9a fd ff ff       	call   140001180 <__tmainCRTStartup>
   1400013e6:	90                   	nop

00000001400013e7 <.l_endw>:
   1400013e7:	90                   	nop
   1400013e8:	48 83 c4 28          	add    rsp,0x28
   1400013ec:	c3                   	ret
   1400013ed:	0f 1f 00             	nop    DWORD PTR [rax]

00000001400013f0 <mainCRTStartup>:
   1400013f0:	48 83 ec 28          	sub    rsp,0x28

00000001400013f4 <.l_start>:
   1400013f4:	48 8b 05 05 41 00 00 	mov    rax,QWORD PTR [rip+0x4105]        # 140005500 <.refptr.__mingw_app_type>
   1400013fb:	c7 00 00 00 00 00    	mov    DWORD PTR [rax],0x0
   140001401:	e8 7a fd ff ff       	call   140001180 <__tmainCRTStartup>
   140001406:	90                   	nop

0000000140001407 <.l_end>:
   140001407:	90                   	nop
   140001408:	48 83 c4 28          	add    rsp,0x28
   14000140c:	c3                   	ret
   14000140d:	0f 1f 00             	nop    DWORD PTR [rax]

0000000140001410 <atexit>:
   140001410:	48 83 ec 28          	sub    rsp,0x28
   140001414:	e8 07 19 00 00       	call   140002d20 <_onexit>
   140001419:	48 83 f8 01          	cmp    rax,0x1
   14000141d:	19 c0                	sbb    eax,eax
   14000141f:	48 83 c4 28          	add    rsp,0x28
   140001423:	c3                   	ret
   140001424:	90                   	nop
   140001425:	90                   	nop
   140001426:	90                   	nop
   140001427:	90                   	nop
   140001428:	90                   	nop
   140001429:	90                   	nop
   14000142a:	90                   	nop
   14000142b:	90                   	nop
   14000142c:	90                   	nop
   14000142d:	90                   	nop
   14000142e:	90                   	nop
   14000142f:	90                   	nop

0000000140001430 <__gcc_register_frame>:
   140001430:	48 8d 0d 09 00 00 00 	lea    rcx,[rip+0x9]        # 140001440 <__gcc_deregister_frame>
   140001437:	e9 d4 ff ff ff       	jmp    140001410 <atexit>
   14000143c:	0f 1f 40 00          	nop    DWORD PTR [rax+0x0]

0000000140001440 <__gcc_deregister_frame>:
   140001440:	c3                   	ret
   140001441:	90                   	nop
   140001442:	90                   	nop
   140001443:	90                   	nop
   140001444:	90                   	nop
   140001445:	90                   	nop
   140001446:	90                   	nop
   140001447:	90                   	nop
   140001448:	90                   	nop
   140001449:	90                   	nop
   14000144a:	90                   	nop
   14000144b:	90                   	nop
   14000144c:	90                   	nop
   14000144d:	90                   	nop
   14000144e:	90                   	nop
   14000144f:	90                   	nop

0000000140001450 <main>:
   140001450:	55                   	push   rbp
   140001451:	48 89 e5             	mov    rbp,rsp
   140001454:	48 83 ec 30          	sub    rsp,0x30
   140001458:	e8 63 07 00 00       	call   140001bc0 <__main>
   14000145d:	48 8d 05 9c 3b 00 00 	lea    rax,[rip+0x3b9c]        # 140005000 <.rdata>
   140001464:	48 89 c1             	mov    rcx,rax
   140001467:	e8 24 05 00 00       	call   140001990 <wrap_alloc_init>
   14000146c:	e8 4f 00 00 00       	call   1400014c0 <listCreate>
   140001471:	48 89 45 f8          	mov    QWORD PTR [rbp-0x8],rax
   140001475:	48 8b 45 f8          	mov    rax,QWORD PTR [rbp-0x8]
   140001479:	ba 00 00 00 00       	mov    edx,0x0
   14000147e:	48 89 c1             	mov    rcx,rax
   140001481:	e8 ba 00 00 00       	call   140001540 <listAdd>
   140001486:	48 8b 45 f8          	mov    rax,QWORD PTR [rbp-0x8]
   14000148a:	ba 00 00 00 00       	mov    edx,0x0
   14000148f:	48 89 c1             	mov    rcx,rax
   140001492:	e8 29 01 00 00       	call   1400015c0 <listDel>
   140001497:	48 8b 45 f8          	mov    rax,QWORD PTR [rbp-0x8]
   14000149b:	48 89 c1             	mov    rcx,rax
   14000149e:	e8 4d 00 00 00       	call   1400014f0 <listDelete>
   1400014a3:	48 c7 45 f8 00 00 00 	mov    QWORD PTR [rbp-0x8],0x0
   1400014aa:	00 
   1400014ab:	e8 00 05 00 00       	call   1400019b0 <wrap_alloc_fini>
   1400014b0:	b8 00 00 00 00       	mov    eax,0x0
   1400014b5:	48 83 c4 30          	add    rsp,0x30
   1400014b9:	5d                   	pop    rbp
   1400014ba:	c3                   	ret
   1400014bb:	90                   	nop
   1400014bc:	90                   	nop
   1400014bd:	90                   	nop
   1400014be:	90                   	nop
   1400014bf:	90                   	nop

00000001400014c0 <listCreate>:
   1400014c0:	48 83 ec 28          	sub    rsp,0x28
   1400014c4:	b9 18 00 00 00       	mov    ecx,0x18
   1400014c9:	e8 12 05 00 00       	call   1400019e0 <wrap_malloc>
   1400014ce:	48 85 c0             	test   rax,rax
   1400014d1:	74 0e                	je     1400014e1 <listCreate+0x21>
   1400014d3:	66 0f ef c0          	pxor   xmm0,xmm0
   1400014d7:	c7 00 00 00 00 00    	mov    DWORD PTR [rax],0x0
   1400014dd:	0f 11 40 08          	movups XMMWORD PTR [rax+0x8],xmm0
   1400014e1:	48 83 c4 28          	add    rsp,0x28
   1400014e5:	c3                   	ret
   1400014e6:	66 2e 0f 1f 84 00 00 	cs nop WORD PTR [rax+rax*1+0x0]
   1400014ed:	00 00 00 

00000001400014f0 <listDelete>:
   1400014f0:	57                   	push   rdi
   1400014f1:	56                   	push   rsi
   1400014f2:	53                   	push   rbx
   1400014f3:	48 83 ec 20          	sub    rsp,0x20
   1400014f7:	48 85 c9             	test   rcx,rcx
   1400014fa:	48 89 cf             	mov    rdi,rcx
   1400014fd:	74 39                	je     140001538 <listDelete+0x48>
   1400014ff:	8b 01                	mov    eax,DWORD PTR [rcx]
   140001501:	48 8b 59 08          	mov    rbx,QWORD PTR [rcx+0x8]
   140001505:	85 c0                	test   eax,eax
   140001507:	7e 1a                	jle    140001523 <listDelete+0x33>
   140001509:	31 f6                	xor    esi,esi
   14000150b:	0f 1f 44 00 00       	nop    DWORD PTR [rax+rax*1+0x0]
   140001510:	48 89 d9             	mov    rcx,rbx
   140001513:	83 c6 01             	add    esi,0x1
   140001516:	48 8b 5b 10          	mov    rbx,QWORD PTR [rbx+0x10]
   14000151a:	e8 b1 05 00 00       	call   140001ad0 <wrap_free>
   14000151f:	39 37                	cmp    DWORD PTR [rdi],esi
   140001521:	7f ed                	jg     140001510 <listDelete+0x20>
   140001523:	48 89 f9             	mov    rcx,rdi
   140001526:	48 83 c4 20          	add    rsp,0x20
   14000152a:	5b                   	pop    rbx
   14000152b:	5e                   	pop    rsi
   14000152c:	5f                   	pop    rdi
   14000152d:	e9 9e 05 00 00       	jmp    140001ad0 <wrap_free>
   140001532:	66 0f 1f 44 00 00    	nop    WORD PTR [rax+rax*1+0x0]
   140001538:	48 83 c4 20          	add    rsp,0x20
   14000153c:	5b                   	pop    rbx
   14000153d:	5e                   	pop    rsi
   14000153e:	5f                   	pop    rdi
   14000153f:	c3                   	ret

0000000140001540 <listAdd>:
   140001540:	56                   	push   rsi
   140001541:	53                   	push   rbx
   140001542:	48 83 ec 28          	sub    rsp,0x28
   140001546:	48 85 c9             	test   rcx,rcx
   140001549:	48 89 cb             	mov    rbx,rcx
   14000154c:	48 89 d6             	mov    rsi,rdx
   14000154f:	74 56                	je     1400015a7 <listAdd+0x67>
   140001551:	e8 aa 03 00 00       	call   140001900 <listNodeCreate>
   140001556:	48 85 c0             	test   rax,rax
   140001559:	74 53                	je     1400015ae <listAdd+0x6e>
   14000155b:	8b 0b                	mov    ecx,DWORD PTR [rbx]
   14000155d:	85 c9                	test   ecx,ecx
   14000155f:	74 2f                	je     140001590 <listAdd+0x50>
   140001561:	48 8b 53 10          	mov    rdx,QWORD PTR [rbx+0x10]
   140001565:	48 c7 40 10 00 00 00 	mov    QWORD PTR [rax+0x10],0x0
   14000156c:	00 
   14000156d:	48 89 50 08          	mov    QWORD PTR [rax+0x8],rdx
   140001571:	48 89 42 10          	mov    QWORD PTR [rdx+0x10],rax
   140001575:	48 89 43 10          	mov    QWORD PTR [rbx+0x10],rax
   140001579:	83 c1 01             	add    ecx,0x1
   14000157c:	48 89 30             	mov    QWORD PTR [rax],rsi
   14000157f:	31 c0                	xor    eax,eax
   140001581:	89 0b                	mov    DWORD PTR [rbx],ecx
   140001583:	48 83 c4 28          	add    rsp,0x28
   140001587:	5b                   	pop    rbx
   140001588:	5e                   	pop    rsi
   140001589:	c3                   	ret
   14000158a:	66 0f 1f 44 00 00    	nop    WORD PTR [rax+rax*1+0x0]
   140001590:	66 48 0f 6e c8       	movq   xmm1,rax
   140001595:	f2 0f 12 c1          	movddup xmm0,xmm1
   140001599:	0f 11 43 08          	movups XMMWORD PTR [rbx+0x8],xmm0
   14000159d:	66 0f ef c0          	pxor   xmm0,xmm0
   1400015a1:	0f 11 40 08          	movups XMMWORD PTR [rax+0x8],xmm0
   1400015a5:	eb d2                	jmp    140001579 <listAdd+0x39>
   1400015a7:	b8 00 10 00 80       	mov    eax,0x80001000
   1400015ac:	eb d5                	jmp    140001583 <listAdd+0x43>
   1400015ae:	b8 01 10 00 80       	mov    eax,0x80001001
   1400015b3:	eb ce                	jmp    140001583 <listAdd+0x43>
   1400015b5:	66 66 2e 0f 1f 84 00 	data16 cs nop WORD PTR [rax+rax*1+0x0]
   1400015bc:	00 00 00 00 

00000001400015c0 <listDel>:
   1400015c0:	57                   	push   rdi
   1400015c1:	56                   	push   rsi
   1400015c2:	53                   	push   rbx
   1400015c3:	48 83 ec 20          	sub    rsp,0x20
   1400015c7:	48 85 c9             	test   rcx,rcx
   1400015ca:	48 89 cb             	mov    rbx,rcx
   1400015cd:	89 d7                	mov    edi,edx
   1400015cf:	0f 84 8a 00 00 00    	je     14000165f <listDel+0x9f>
   1400015d5:	e8 d6 02 00 00       	call   1400018b0 <listIndexRange>
   1400015da:	85 c0                	test   eax,eax
   1400015dc:	74 7a                	je     140001658 <listDel+0x98>
   1400015de:	89 fa                	mov    edx,edi
   1400015e0:	48 89 d9             	mov    rcx,rbx
   1400015e3:	e8 28 03 00 00       	call   140001910 <listAccess>
   1400015e8:	48 85 c0             	test   rax,rax
   1400015eb:	48 89 c6             	mov    rsi,rax
   1400015ee:	74 76                	je     140001666 <listDel+0xa6>
   1400015f0:	48 8b 50 08          	mov    rdx,QWORD PTR [rax+0x8]
   1400015f4:	48 89 d9             	mov    rcx,rbx
   1400015f7:	48 8b 40 10          	mov    rax,QWORD PTR [rax+0x10]
   1400015fb:	48 89 42 10          	mov    QWORD PTR [rdx+0x10],rax
   1400015ff:	48 89 50 08          	mov    QWORD PTR [rax+0x8],rdx
   140001603:	89 fa                	mov    edx,edi
   140001605:	e8 c6 02 00 00       	call   1400018d0 <listIsBegin>
   14000160a:	85 c0                	test   eax,eax
   14000160c:	74 08                	je     140001616 <listDel+0x56>
   14000160e:	48 8b 46 10          	mov    rax,QWORD PTR [rsi+0x10]
   140001612:	48 89 43 08          	mov    QWORD PTR [rbx+0x8],rax
   140001616:	89 fa                	mov    edx,edi
   140001618:	48 89 d9             	mov    rcx,rbx
   14000161b:	e8 c0 02 00 00       	call   1400018e0 <listIsEnd>
   140001620:	85 c0                	test   eax,eax
   140001622:	74 08                	je     14000162c <listDel+0x6c>
   140001624:	48 8b 46 08          	mov    rax,QWORD PTR [rsi+0x8]
   140001628:	48 89 43 10          	mov    QWORD PTR [rbx+0x10],rax
   14000162c:	48 89 f1             	mov    rcx,rsi
   14000162f:	e8 9c 04 00 00       	call   140001ad0 <wrap_free>
   140001634:	83 2b 01             	sub    DWORD PTR [rbx],0x1
   140001637:	74 0f                	je     140001648 <listDel+0x88>
   140001639:	31 c0                	xor    eax,eax
   14000163b:	48 83 c4 20          	add    rsp,0x20
   14000163f:	5b                   	pop    rbx
   140001640:	5e                   	pop    rsi
   140001641:	5f                   	pop    rdi
   140001642:	c3                   	ret
   140001643:	0f 1f 44 00 00       	nop    DWORD PTR [rax+rax*1+0x0]
   140001648:	66 0f ef c0          	pxor   xmm0,xmm0
   14000164c:	0f 11 43 08          	movups XMMWORD PTR [rbx+0x8],xmm0
   140001650:	eb e7                	jmp    140001639 <listDel+0x79>
   140001652:	66 0f 1f 44 00 00    	nop    WORD PTR [rax+rax*1+0x0]
   140001658:	b8 00 20 00 80       	mov    eax,0x80002000
   14000165d:	eb dc                	jmp    14000163b <listDel+0x7b>
   14000165f:	b8 00 10 00 80       	mov    eax,0x80001000
   140001664:	eb d5                	jmp    14000163b <listDel+0x7b>
   140001666:	b8 02 10 00 80       	mov    eax,0x80001002
   14000166b:	eb ce                	jmp    14000163b <listDel+0x7b>
   14000166d:	0f 1f 00             	nop    DWORD PTR [rax]

0000000140001670 <listCrean>:
   140001670:	57                   	push   rdi
   140001671:	56                   	push   rsi
   140001672:	53                   	push   rbx
   140001673:	48 83 ec 20          	sub    rsp,0x20
   140001677:	48 85 c9             	test   rcx,rcx
   14000167a:	48 89 cf             	mov    rdi,rcx
   14000167d:	74 34                	je     1400016b3 <listCrean+0x43>
   14000167f:	8b 01                	mov    eax,DWORD PTR [rcx]
   140001681:	48 8b 59 08          	mov    rbx,QWORD PTR [rcx+0x8]
   140001685:	85 c0                	test   eax,eax
   140001687:	7e 1a                	jle    1400016a3 <listCrean+0x33>
   140001689:	31 f6                	xor    esi,esi
   14000168b:	0f 1f 44 00 00       	nop    DWORD PTR [rax+rax*1+0x0]
   140001690:	48 89 d9             	mov    rcx,rbx
   140001693:	83 c6 01             	add    esi,0x1
   140001696:	48 8b 5b 10          	mov    rbx,QWORD PTR [rbx+0x10]
   14000169a:	e8 31 04 00 00       	call   140001ad0 <wrap_free>
   14000169f:	39 37                	cmp    DWORD PTR [rdi],esi
   1400016a1:	7f ed                	jg     140001690 <listCrean+0x20>
   1400016a3:	c7 07 00 00 00 00    	mov    DWORD PTR [rdi],0x0
   1400016a9:	31 c0                	xor    eax,eax
   1400016ab:	48 83 c4 20          	add    rsp,0x20
   1400016af:	5b                   	pop    rbx
   1400016b0:	5e                   	pop    rsi
   1400016b1:	5f                   	pop    rdi
   1400016b2:	c3                   	ret
   1400016b3:	b8 00 10 00 80       	mov    eax,0x80001000
   1400016b8:	eb f1                	jmp    1400016ab <listCrean+0x3b>
   1400016ba:	66 0f 1f 44 00 00    	nop    WORD PTR [rax+rax*1+0x0]

00000001400016c0 <listFill>:
   1400016c0:	48 85 c9             	test   rcx,rcx
   1400016c3:	74 28                	je     1400016ed <listFill+0x2d>
   1400016c5:	44 8b 09             	mov    r9d,DWORD PTR [rcx]
   1400016c8:	31 c0                	xor    eax,eax
   1400016ca:	4c 8b 41 08          	mov    r8,QWORD PTR [rcx+0x8]
   1400016ce:	45 85 c9             	test   r9d,r9d
   1400016d1:	7e 17                	jle    1400016ea <listFill+0x2a>
   1400016d3:	0f 1f 44 00 00       	nop    DWORD PTR [rax+rax*1+0x0]
   1400016d8:	83 c0 01             	add    eax,0x1
   1400016db:	4c 89 c1             	mov    rcx,r8
   1400016de:	4d 8b 40 10          	mov    r8,QWORD PTR [r8+0x10]
   1400016e2:	44 39 c8             	cmp    eax,r9d
   1400016e5:	48 89 11             	mov    QWORD PTR [rcx],rdx
   1400016e8:	75 ee                	jne    1400016d8 <listFill+0x18>
   1400016ea:	31 c0                	xor    eax,eax
   1400016ec:	c3                   	ret
   1400016ed:	b8 00 10 00 80       	mov    eax,0x80001000
   1400016f2:	c3                   	ret
   1400016f3:	66 66 2e 0f 1f 84 00 	data16 cs nop WORD PTR [rax+rax*1+0x0]
   1400016fa:	00 00 00 00 
   1400016fe:	66 90                	xchg   ax,ax

0000000140001700 <listGet>:
   140001700:	56                   	push   rsi
   140001701:	53                   	push   rbx
   140001702:	48 83 ec 28          	sub    rsp,0x28
   140001706:	48 85 c9             	test   rcx,rcx
   140001709:	48 89 cb             	mov    rbx,rcx
   14000170c:	89 d6                	mov    esi,edx
   14000170e:	74 28                	je     140001738 <listGet+0x38>
   140001710:	e8 9b 01 00 00       	call   1400018b0 <listIndexRange>
   140001715:	85 c0                	test   eax,eax
   140001717:	74 1f                	je     140001738 <listGet+0x38>
   140001719:	89 f2                	mov    edx,esi
   14000171b:	48 89 d9             	mov    rcx,rbx
   14000171e:	e8 ed 01 00 00       	call   140001910 <listAccess>
   140001723:	48 85 c0             	test   rax,rax
   140001726:	74 10                	je     140001738 <listGet+0x38>
   140001728:	48 8b 00             	mov    rax,QWORD PTR [rax]
   14000172b:	48 83 c4 28          	add    rsp,0x28
   14000172f:	5b                   	pop    rbx
   140001730:	5e                   	pop    rsi
   140001731:	c3                   	ret
   140001732:	66 0f 1f 44 00 00    	nop    WORD PTR [rax+rax*1+0x0]
   140001738:	31 c0                	xor    eax,eax
   14000173a:	48 83 c4 28          	add    rsp,0x28
   14000173e:	5b                   	pop    rbx
   14000173f:	5e                   	pop    rsi
   140001740:	c3                   	ret
   140001741:	66 66 2e 0f 1f 84 00 	data16 cs nop WORD PTR [rax+rax*1+0x0]
   140001748:	00 00 00 00 
   14000174c:	0f 1f 40 00          	nop    DWORD PTR [rax+0x0]

0000000140001750 <listSet>:
   140001750:	57                   	push   rdi
   140001751:	56                   	push   rsi
   140001752:	53                   	push   rbx
   140001753:	48 83 ec 20          	sub    rsp,0x20
   140001757:	48 85 c9             	test   rcx,rcx
   14000175a:	48 89 cb             	mov    rbx,rcx
   14000175d:	89 d6                	mov    esi,edx
   14000175f:	4c 89 c7             	mov    rdi,r8
   140001762:	74 33                	je     140001797 <listSet+0x47>
   140001764:	e8 47 01 00 00       	call   1400018b0 <listIndexRange>
   140001769:	85 c0                	test   eax,eax
   14000176b:	74 23                	je     140001790 <listSet+0x40>
   14000176d:	89 f2                	mov    edx,esi
   14000176f:	48 89 d9             	mov    rcx,rbx
   140001772:	e8 99 01 00 00       	call   140001910 <listAccess>
   140001777:	48 85 c0             	test   rax,rax
   14000177a:	74 22                	je     14000179e <listSet+0x4e>
   14000177c:	48 89 38             	mov    QWORD PTR [rax],rdi
   14000177f:	31 c0                	xor    eax,eax
   140001781:	48 83 c4 20          	add    rsp,0x20
   140001785:	5b                   	pop    rbx
   140001786:	5e                   	pop    rsi
   140001787:	5f                   	pop    rdi
   140001788:	c3                   	ret
   140001789:	0f 1f 80 00 00 00 00 	nop    DWORD PTR [rax+0x0]
   140001790:	b8 00 20 00 80       	mov    eax,0x80002000
   140001795:	eb ea                	jmp    140001781 <listSet+0x31>
   140001797:	b8 00 10 00 80       	mov    eax,0x80001000
   14000179c:	eb e3                	jmp    140001781 <listSet+0x31>
   14000179e:	b8 02 10 00 80       	mov    eax,0x80001002
   1400017a3:	eb dc                	jmp    140001781 <listSet+0x31>
   1400017a5:	66 66 2e 0f 1f 84 00 	data16 cs nop WORD PTR [rax+rax*1+0x0]
   1400017ac:	00 00 00 00 

00000001400017b0 <listLength>:
   1400017b0:	48 85 c9             	test   rcx,rcx
   1400017b3:	74 03                	je     1400017b8 <listLength+0x8>
   1400017b5:	8b 01                	mov    eax,DWORD PTR [rcx]
   1400017b7:	c3                   	ret
   1400017b8:	b8 ff ff ff ff       	mov    eax,0xffffffff
   1400017bd:	c3                   	ret
   1400017be:	66 90                	xchg   ax,ax

00000001400017c0 <listCopy>:
   1400017c0:	57                   	push   rdi
   1400017c1:	56                   	push   rsi
   1400017c2:	53                   	push   rbx
   1400017c3:	48 83 ec 20          	sub    rsp,0x20
   1400017c7:	48 85 c9             	test   rcx,rcx
   1400017ca:	48 89 ce             	mov    rsi,rcx
   1400017cd:	0f 84 7d 00 00 00    	je     140001850 <listCopy+0x90>
   1400017d3:	b9 18 00 00 00       	mov    ecx,0x18
   1400017d8:	e8 03 02 00 00       	call   1400019e0 <wrap_malloc>
   1400017dd:	48 85 c0             	test   rax,rax
   1400017e0:	48 89 c7             	mov    rdi,rax
   1400017e3:	74 0e                	je     1400017f3 <listCopy+0x33>
   1400017e5:	66 0f ef c0          	pxor   xmm0,xmm0
   1400017e9:	c7 00 00 00 00 00    	mov    DWORD PTR [rax],0x0
   1400017ef:	0f 11 40 08          	movups XMMWORD PTR [rax+0x8],xmm0
   1400017f3:	8b 06                	mov    eax,DWORD PTR [rsi]
   1400017f5:	85 c0                	test   eax,eax
   1400017f7:	7e 47                	jle    140001840 <listCopy+0x80>
   1400017f9:	31 db                	xor    ebx,ebx
   1400017fb:	eb 24                	jmp    140001821 <listCopy+0x61>
   1400017fd:	0f 1f 00             	nop    DWORD PTR [rax]
   140001800:	89 da                	mov    edx,ebx
   140001802:	48 89 f1             	mov    rcx,rsi
   140001805:	e8 06 01 00 00       	call   140001910 <listAccess>
   14000180a:	48 85 c0             	test   rax,rax
   14000180d:	74 20                	je     14000182f <listCopy+0x6f>
   14000180f:	48 8b 10             	mov    rdx,QWORD PTR [rax]
   140001812:	48 89 f9             	mov    rcx,rdi
   140001815:	83 c3 01             	add    ebx,0x1
   140001818:	e8 23 fd ff ff       	call   140001540 <listAdd>
   14000181d:	39 1e                	cmp    DWORD PTR [rsi],ebx
   14000181f:	7e 1f                	jle    140001840 <listCopy+0x80>
   140001821:	89 da                	mov    edx,ebx
   140001823:	48 89 f1             	mov    rcx,rsi
   140001826:	e8 85 00 00 00       	call   1400018b0 <listIndexRange>
   14000182b:	85 c0                	test   eax,eax
   14000182d:	75 d1                	jne    140001800 <listCopy+0x40>
   14000182f:	31 d2                	xor    edx,edx
   140001831:	48 89 f9             	mov    rcx,rdi
   140001834:	83 c3 01             	add    ebx,0x1
   140001837:	e8 04 fd ff ff       	call   140001540 <listAdd>
   14000183c:	39 1e                	cmp    DWORD PTR [rsi],ebx
   14000183e:	7f e1                	jg     140001821 <listCopy+0x61>
   140001840:	48 89 f8             	mov    rax,rdi
   140001843:	48 83 c4 20          	add    rsp,0x20
   140001847:	5b                   	pop    rbx
   140001848:	5e                   	pop    rsi
   140001849:	5f                   	pop    rdi
   14000184a:	c3                   	ret
   14000184b:	0f 1f 44 00 00       	nop    DWORD PTR [rax+rax*1+0x0]
   140001850:	31 ff                	xor    edi,edi
   140001852:	48 89 f8             	mov    rax,rdi
   140001855:	48 83 c4 20          	add    rsp,0x20
   140001859:	5b                   	pop    rbx
   14000185a:	5e                   	pop    rsi
   14000185b:	5f                   	pop    rdi
   14000185c:	c3                   	ret
   14000185d:	90                   	nop
   14000185e:	90                   	nop
   14000185f:	90                   	nop

0000000140001860 <listIndexConvert>:
   140001860:	8b 09                	mov    ecx,DWORD PTR [rcx]
   140001862:	44 8d 04 0a          	lea    r8d,[rdx+rcx*1]
   140001866:	89 d0                	mov    eax,edx
   140001868:	29 c8                	sub    eax,ecx
   14000186a:	85 d2                	test   edx,edx
   14000186c:	41 0f 48 c0          	cmovs  eax,r8d
   140001870:	c3                   	ret
   140001871:	66 66 2e 0f 1f 84 00 	data16 cs nop WORD PTR [rax+rax*1+0x0]
   140001878:	00 00 00 00 
   14000187c:	0f 1f 40 00          	nop    DWORD PTR [rax+0x0]

0000000140001880 <listIndexConvertP>:
   140001880:	85 d2                	test   edx,edx
   140001882:	89 d0                	mov    eax,edx
   140001884:	78 0a                	js     140001890 <listIndexConvertP+0x10>
   140001886:	c3                   	ret
   140001887:	66 0f 1f 84 00 00 00 	nop    WORD PTR [rax+rax*1+0x0]
   14000188e:	00 00 
   140001890:	03 01                	add    eax,DWORD PTR [rcx]
   140001892:	c3                   	ret
   140001893:	66 66 2e 0f 1f 84 00 	data16 cs nop WORD PTR [rax+rax*1+0x0]
   14000189a:	00 00 00 00 
   14000189e:	66 90                	xchg   ax,ax

00000001400018a0 <listIndexConvertN>:
   1400018a0:	85 d2                	test   edx,edx
   1400018a2:	89 d0                	mov    eax,edx
   1400018a4:	78 02                	js     1400018a8 <listIndexConvertN+0x8>
   1400018a6:	2b 01                	sub    eax,DWORD PTR [rcx]
   1400018a8:	c3                   	ret
   1400018a9:	0f 1f 80 00 00 00 00 	nop    DWORD PTR [rax+0x0]

00000001400018b0 <listIndexRange>:
   1400018b0:	8b 01                	mov    eax,DWORD PTR [rcx]
   1400018b2:	89 c1                	mov    ecx,eax
   1400018b4:	f7 d1                	not    ecx
   1400018b6:	39 d1                	cmp    ecx,edx
   1400018b8:	0f 9c c1             	setl   cl
   1400018bb:	39 d0                	cmp    eax,edx
   1400018bd:	0f 9f c0             	setg   al
   1400018c0:	0f b6 c0             	movzx  eax,al
   1400018c3:	21 c8                	and    eax,ecx
   1400018c5:	c3                   	ret
   1400018c6:	66 2e 0f 1f 84 00 00 	cs nop WORD PTR [rax+rax*1+0x0]
   1400018cd:	00 00 00 

00000001400018d0 <listIsBegin>:
   1400018d0:	85 d2                	test   edx,edx
   1400018d2:	79 02                	jns    1400018d6 <listIsBegin+0x6>
   1400018d4:	03 11                	add    edx,DWORD PTR [rcx]
   1400018d6:	31 c0                	xor    eax,eax
   1400018d8:	85 d2                	test   edx,edx
   1400018da:	0f 94 c0             	sete   al
   1400018dd:	c3                   	ret
   1400018de:	66 90                	xchg   ax,ax

00000001400018e0 <listIsEnd>:
   1400018e0:	8b 01                	mov    eax,DWORD PTR [rcx]
   1400018e2:	8d 0c 02             	lea    ecx,[rdx+rax*1]
   1400018e5:	85 d2                	test   edx,edx
   1400018e7:	0f 48 d1             	cmovs  edx,ecx
   1400018ea:	83 e8 01             	sub    eax,0x1
   1400018ed:	39 d0                	cmp    eax,edx
   1400018ef:	0f 94 c0             	sete   al
   1400018f2:	0f b6 c0             	movzx  eax,al
   1400018f5:	c3                   	ret
   1400018f6:	66 2e 0f 1f 84 00 00 	cs nop WORD PTR [rax+rax*1+0x0]
   1400018fd:	00 00 00 

0000000140001900 <listNodeCreate>:
   140001900:	b9 18 00 00 00       	mov    ecx,0x18
   140001905:	e9 d6 00 00 00       	jmp    1400019e0 <wrap_malloc>
   14000190a:	66 0f 1f 44 00 00    	nop    WORD PTR [rax+rax*1+0x0]

0000000140001910 <listAccess>:
   140001910:	85 d2                	test   edx,edx
   140001912:	78 2c                	js     140001940 <listAccess+0x30>
   140001914:	48 8b 41 08          	mov    rax,QWORD PTR [rcx+0x8]
   140001918:	74 23                	je     14000193d <listAccess+0x2d>
   14000191a:	8d 4a ff             	lea    ecx,[rdx-0x1]
   14000191d:	f6 c2 01             	test   dl,0x1
   140001920:	74 0e                	je     140001930 <listAccess+0x20>
   140001922:	85 c9                	test   ecx,ecx
   140001924:	48 8b 40 10          	mov    rax,QWORD PTR [rax+0x10]
   140001928:	89 ca                	mov    edx,ecx
   14000192a:	74 11                	je     14000193d <listAccess+0x2d>
   14000192c:	0f 1f 40 00          	nop    DWORD PTR [rax+0x0]
   140001930:	48 8b 40 10          	mov    rax,QWORD PTR [rax+0x10]
   140001934:	83 ea 02             	sub    edx,0x2
   140001937:	48 8b 40 10          	mov    rax,QWORD PTR [rax+0x10]
   14000193b:	75 f3                	jne    140001930 <listAccess+0x20>
   14000193d:	c3                   	ret
   14000193e:	66 90                	xchg   ax,ax
   140001940:	83 fa ff             	cmp    edx,0xffffffff
   140001943:	48 8b 41 10          	mov    rax,QWORD PTR [rcx+0x10]
   140001947:	74 f4                	je     14000193d <listAccess+0x2d>
   140001949:	8d 4a 01             	lea    ecx,[rdx+0x1]
   14000194c:	f6 c2 01             	test   dl,0x1
   14000194f:	75 0f                	jne    140001960 <listAccess+0x50>
   140001951:	83 f9 ff             	cmp    ecx,0xffffffff
   140001954:	48 8b 40 08          	mov    rax,QWORD PTR [rax+0x8]
   140001958:	89 ca                	mov    edx,ecx
   14000195a:	74 e1                	je     14000193d <listAccess+0x2d>
   14000195c:	0f 1f 40 00          	nop    DWORD PTR [rax+0x0]
   140001960:	48 8b 40 08          	mov    rax,QWORD PTR [rax+0x8]
   140001964:	83 c2 02             	add    edx,0x2
   140001967:	83 fa ff             	cmp    edx,0xffffffff
   14000196a:	48 8b 40 08          	mov    rax,QWORD PTR [rax+0x8]
   14000196e:	74 cd                	je     14000193d <listAccess+0x2d>
   140001970:	48 8b 40 08          	mov    rax,QWORD PTR [rax+0x8]
   140001974:	83 c2 02             	add    edx,0x2
   140001977:	83 fa ff             	cmp    edx,0xffffffff
   14000197a:	48 8b 40 08          	mov    rax,QWORD PTR [rax+0x8]
   14000197e:	75 e0                	jne    140001960 <listAccess+0x50>
   140001980:	eb bb                	jmp    14000193d <listAccess+0x2d>
   140001982:	90                   	nop
   140001983:	90                   	nop
   140001984:	90                   	nop
   140001985:	90                   	nop
   140001986:	90                   	nop
   140001987:	90                   	nop
   140001988:	90                   	nop
   140001989:	90                   	nop
   14000198a:	90                   	nop
   14000198b:	90                   	nop
   14000198c:	90                   	nop
   14000198d:	90                   	nop
   14000198e:	90                   	nop
   14000198f:	90                   	nop

0000000140001990 <wrap_alloc_init>:
   140001990:	48 83 ec 28          	sub    rsp,0x28
   140001994:	48 8d 15 85 36 00 00 	lea    rdx,[rip+0x3685]        # 140005020 <.rdata>
   14000199b:	e8 20 15 00 00       	call   140002ec0 <fopen>
   1400019a0:	48 89 05 89 66 00 00 	mov    QWORD PTR [rip+0x6689],rax        # 140008030 <WRAP_ALLOC_FILE_POINTER>
   1400019a7:	48 83 c4 28          	add    rsp,0x28
   1400019ab:	c3                   	ret
   1400019ac:	0f 1f 40 00          	nop    DWORD PTR [rax+0x0]

00000001400019b0 <wrap_alloc_fini>:
   1400019b0:	48 8b 0d 79 66 00 00 	mov    rcx,QWORD PTR [rip+0x6679]        # 140008030 <WRAP_ALLOC_FILE_POINTER>
   1400019b7:	e9 fc 14 00 00       	jmp    140002eb8 <fclose>
   1400019bc:	0f 1f 40 00          	nop    DWORD PTR [rax+0x0]

00000001400019c0 <wrap_log_header>:
   1400019c0:	4c 8b 0d 69 66 00 00 	mov    r9,QWORD PTR [rip+0x6669]        # 140008030 <WRAP_ALLOC_FILE_POINTER>
   1400019c7:	41 b8 4f 00 00 00    	mov    r8d,0x4f
   1400019cd:	ba 01 00 00 00       	mov    edx,0x1
   1400019d2:	48 8d 0d 4f 36 00 00 	lea    rcx,[rip+0x364f]        # 140005028 <.rdata+0x8>
   1400019d9:	e9 ea 14 00 00       	jmp    140002ec8 <fwrite>
   1400019de:	66 90                	xchg   ax,ax

00000001400019e0 <wrap_malloc>:
   1400019e0:	56                   	push   rsi
   1400019e1:	53                   	push   rbx
   1400019e2:	48 83 ec 38          	sub    rsp,0x38
   1400019e6:	48 89 ce             	mov    rsi,rcx
   1400019e9:	e8 9a 15 00 00       	call   140002f88 <malloc>
   1400019ee:	48 8b 0d 3b 66 00 00 	mov    rcx,QWORD PTR [rip+0x663b]        # 140008030 <WRAP_ALLOC_FILE_POINTER>
   1400019f5:	45 31 c9             	xor    r9d,r9d
   1400019f8:	48 c7 44 24 28 00 00 	mov    QWORD PTR [rsp+0x28],0x0
   1400019ff:	00 00 
   140001a01:	48 89 c3             	mov    rbx,rax
   140001a04:	48 89 74 24 20       	mov    QWORD PTR [rsp+0x20],rsi
   140001a09:	49 89 c0             	mov    r8,rax
   140001a0c:	48 8d 15 65 36 00 00 	lea    rdx,[rip+0x3665]        # 140005078 <.rdata+0x58>
   140001a13:	e8 d8 11 00 00       	call   140002bf0 <fprintf>
   140001a18:	48 89 d8             	mov    rax,rbx
   140001a1b:	48 83 c4 38          	add    rsp,0x38
   140001a1f:	5b                   	pop    rbx
   140001a20:	5e                   	pop    rsi
   140001a21:	c3                   	ret
   140001a22:	66 66 2e 0f 1f 84 00 	data16 cs nop WORD PTR [rax+rax*1+0x0]
   140001a29:	00 00 00 00 
   140001a2d:	0f 1f 00             	nop    DWORD PTR [rax]

0000000140001a30 <wrap_calloc>:
   140001a30:	57                   	push   rdi
   140001a31:	56                   	push   rsi
   140001a32:	53                   	push   rbx
   140001a33:	48 83 ec 30          	sub    rsp,0x30
   140001a37:	48 89 cf             	mov    rdi,rcx
   140001a3a:	48 89 d6             	mov    rsi,rdx
   140001a3d:	e8 36 15 00 00       	call   140002f78 <calloc>
   140001a42:	48 8b 0d e7 65 00 00 	mov    rcx,QWORD PTR [rip+0x65e7]        # 140008030 <WRAP_ALLOC_FILE_POINTER>
   140001a49:	48 89 7c 24 28       	mov    QWORD PTR [rsp+0x28],rdi
   140001a4e:	45 31 c9             	xor    r9d,r9d
   140001a51:	48 89 c3             	mov    rbx,rax
   140001a54:	48 89 74 24 20       	mov    QWORD PTR [rsp+0x20],rsi
   140001a59:	49 89 c0             	mov    r8,rax
   140001a5c:	48 8d 15 35 36 00 00 	lea    rdx,[rip+0x3635]        # 140005098 <.rdata+0x78>
   140001a63:	e8 88 11 00 00       	call   140002bf0 <fprintf>
   140001a68:	48 89 d8             	mov    rax,rbx
   140001a6b:	48 83 c4 30          	add    rsp,0x30
   140001a6f:	5b                   	pop    rbx
   140001a70:	5e                   	pop    rsi
   140001a71:	5f                   	pop    rdi
   140001a72:	c3                   	ret
   140001a73:	66 66 2e 0f 1f 84 00 	data16 cs nop WORD PTR [rax+rax*1+0x0]
   140001a7a:	00 00 00 00 
   140001a7e:	66 90                	xchg   ax,ax

0000000140001a80 <wrap_realloc>:
   140001a80:	57                   	push   rdi
   140001a81:	56                   	push   rsi
   140001a82:	53                   	push   rbx
   140001a83:	48 83 ec 30          	sub    rsp,0x30
   140001a87:	48 89 ce             	mov    rsi,rcx
   140001a8a:	48 89 d7             	mov    rdi,rdx
   140001a8d:	e8 fe 14 00 00       	call   140002f90 <realloc>
   140001a92:	48 8b 0d 97 65 00 00 	mov    rcx,QWORD PTR [rip+0x6597]        # 140008030 <WRAP_ALLOC_FILE_POINTER>
   140001a99:	49 89 f1             	mov    r9,rsi
   140001a9c:	48 c7 44 24 28 00 00 	mov    QWORD PTR [rsp+0x28],0x0
   140001aa3:	00 00 
   140001aa5:	48 89 c3             	mov    rbx,rax
   140001aa8:	48 89 7c 24 20       	mov    QWORD PTR [rsp+0x20],rdi
   140001aad:	49 89 c0             	mov    r8,rax
   140001ab0:	48 8d 15 01 36 00 00 	lea    rdx,[rip+0x3601]        # 1400050b8 <.rdata+0x98>
   140001ab7:	e8 34 11 00 00       	call   140002bf0 <fprintf>
   140001abc:	48 89 d8             	mov    rax,rbx
   140001abf:	48 83 c4 30          	add    rsp,0x30
   140001ac3:	5b                   	pop    rbx
   140001ac4:	5e                   	pop    rsi
   140001ac5:	5f                   	pop    rdi
   140001ac6:	c3                   	ret
   140001ac7:	66 0f 1f 84 00 00 00 	nop    WORD PTR [rax+rax*1+0x0]
   140001ace:	00 00 

0000000140001ad0 <wrap_free>:
   140001ad0:	53                   	push   rbx
   140001ad1:	48 83 ec 30          	sub    rsp,0x30
   140001ad5:	48 89 cb             	mov    rbx,rcx
   140001ad8:	e8 a3 14 00 00       	call   140002f80 <free>
   140001add:	48 8b 0d 4c 65 00 00 	mov    rcx,QWORD PTR [rip+0x654c]        # 140008030 <WRAP_ALLOC_FILE_POINTER>
   140001ae4:	49 89 d9             	mov    r9,rbx
   140001ae7:	48 c7 44 24 28 00 00 	mov    QWORD PTR [rsp+0x28],0x0
   140001aee:	00 00 
   140001af0:	48 c7 44 24 20 00 00 	mov    QWORD PTR [rsp+0x20],0x0
   140001af7:	00 00 
   140001af9:	45 31 c0             	xor    r8d,r8d
   140001afc:	48 8d 15 d5 35 00 00 	lea    rdx,[rip+0x35d5]        # 1400050d8 <.rdata+0xb8>
   140001b03:	e8 e8 10 00 00       	call   140002bf0 <fprintf>
   140001b08:	90                   	nop
   140001b09:	48 83 c4 30          	add    rsp,0x30
   140001b0d:	5b                   	pop    rbx
   140001b0e:	c3                   	ret
   140001b0f:	90                   	nop

0000000140001b10 <__do_global_dtors>:
   140001b10:	48 83 ec 28          	sub    rsp,0x28
   140001b14:	48 8b 05 e5 24 00 00 	mov    rax,QWORD PTR [rip+0x24e5]        # 140004000 <__data_start__>
   140001b1b:	48 8b 00             	mov    rax,QWORD PTR [rax]
   140001b1e:	48 85 c0             	test   rax,rax
   140001b21:	74 22                	je     140001b45 <__do_global_dtors+0x35>
   140001b23:	0f 1f 44 00 00       	nop    DWORD PTR [rax+rax*1+0x0]
   140001b28:	ff d0                	call   rax
   140001b2a:	48 8b 05 cf 24 00 00 	mov    rax,QWORD PTR [rip+0x24cf]        # 140004000 <__data_start__>
   140001b31:	48 8d 50 08          	lea    rdx,[rax+0x8]
   140001b35:	48 8b 40 08          	mov    rax,QWORD PTR [rax+0x8]
   140001b39:	48 89 15 c0 24 00 00 	mov    QWORD PTR [rip+0x24c0],rdx        # 140004000 <__data_start__>
   140001b40:	48 85 c0             	test   rax,rax
   140001b43:	75 e3                	jne    140001b28 <__do_global_dtors+0x18>
   140001b45:	48 83 c4 28          	add    rsp,0x28
   140001b49:	c3                   	ret
   140001b4a:	66 0f 1f 44 00 00    	nop    WORD PTR [rax+rax*1+0x0]

0000000140001b50 <__do_global_ctors>:
   140001b50:	56                   	push   rsi
   140001b51:	53                   	push   rbx
   140001b52:	48 83 ec 28          	sub    rsp,0x28
   140001b56:	48 8b 15 13 39 00 00 	mov    rdx,QWORD PTR [rip+0x3913]        # 140005470 <.refptr.__CTOR_LIST__>
   140001b5d:	48 8b 02             	mov    rax,QWORD PTR [rdx]
   140001b60:	83 f8 ff             	cmp    eax,0xffffffff
   140001b63:	89 c1                	mov    ecx,eax
   140001b65:	74 39                	je     140001ba0 <__do_global_ctors+0x50>
   140001b67:	85 c9                	test   ecx,ecx
   140001b69:	74 20                	je     140001b8b <__do_global_ctors+0x3b>
   140001b6b:	89 c8                	mov    eax,ecx
   140001b6d:	83 e9 01             	sub    ecx,0x1
   140001b70:	48 8d 1c c2          	lea    rbx,[rdx+rax*8]
   140001b74:	48 29 c8             	sub    rax,rcx
   140001b77:	48 8d 74 c2 f8       	lea    rsi,[rdx+rax*8-0x8]
   140001b7c:	0f 1f 40 00          	nop    DWORD PTR [rax+0x0]
   140001b80:	ff 13                	call   QWORD PTR [rbx]
   140001b82:	48 83 eb 08          	sub    rbx,0x8
   140001b86:	48 39 f3             	cmp    rbx,rsi
   140001b89:	75 f5                	jne    140001b80 <__do_global_ctors+0x30>
   140001b8b:	48 8d 0d 7e ff ff ff 	lea    rcx,[rip+0xffffffffffffff7e]        # 140001b10 <__do_global_dtors>
   140001b92:	48 83 c4 28          	add    rsp,0x28
   140001b96:	5b                   	pop    rbx
   140001b97:	5e                   	pop    rsi
   140001b98:	e9 73 f8 ff ff       	jmp    140001410 <atexit>
   140001b9d:	0f 1f 00             	nop    DWORD PTR [rax]
   140001ba0:	31 c0                	xor    eax,eax
   140001ba2:	66 0f 1f 44 00 00    	nop    WORD PTR [rax+rax*1+0x0]
   140001ba8:	44 8d 40 01          	lea    r8d,[rax+0x1]
   140001bac:	89 c1                	mov    ecx,eax
   140001bae:	4a 83 3c c2 00       	cmp    QWORD PTR [rdx+r8*8],0x0
   140001bb3:	4c 89 c0             	mov    rax,r8
   140001bb6:	75 f0                	jne    140001ba8 <__do_global_ctors+0x58>
   140001bb8:	eb ad                	jmp    140001b67 <__do_global_ctors+0x17>
   140001bba:	66 0f 1f 44 00 00    	nop    WORD PTR [rax+rax*1+0x0]

0000000140001bc0 <__main>:
   140001bc0:	8b 05 7a 64 00 00    	mov    eax,DWORD PTR [rip+0x647a]        # 140008040 <initialized>
   140001bc6:	85 c0                	test   eax,eax
   140001bc8:	74 06                	je     140001bd0 <__main+0x10>
   140001bca:	c3                   	ret
   140001bcb:	0f 1f 44 00 00       	nop    DWORD PTR [rax+rax*1+0x0]
   140001bd0:	c7 05 66 64 00 00 01 	mov    DWORD PTR [rip+0x6466],0x1        # 140008040 <initialized>
   140001bd7:	00 00 00 
   140001bda:	e9 71 ff ff ff       	jmp    140001b50 <__do_global_ctors>
   140001bdf:	90                   	nop

0000000140001be0 <_setargv>:
   140001be0:	31 c0                	xor    eax,eax
   140001be2:	c3                   	ret
   140001be3:	90                   	nop
   140001be4:	90                   	nop
   140001be5:	90                   	nop
   140001be6:	90                   	nop
   140001be7:	90                   	nop
   140001be8:	90                   	nop
   140001be9:	90                   	nop
   140001bea:	90                   	nop
   140001beb:	90                   	nop
   140001bec:	90                   	nop
   140001bed:	90                   	nop
   140001bee:	90                   	nop
   140001bef:	90                   	nop

0000000140001bf0 <__dyn_tls_dtor>:
   140001bf0:	48 83 ec 28          	sub    rsp,0x28
   140001bf4:	83 fa 03             	cmp    edx,0x3
   140001bf7:	74 17                	je     140001c10 <__dyn_tls_dtor+0x20>
   140001bf9:	85 d2                	test   edx,edx
   140001bfb:	74 13                	je     140001c10 <__dyn_tls_dtor+0x20>
   140001bfd:	b8 01 00 00 00       	mov    eax,0x1
   140001c02:	48 83 c4 28          	add    rsp,0x28
   140001c06:	c3                   	ret
   140001c07:	66 0f 1f 84 00 00 00 	nop    WORD PTR [rax+rax*1+0x0]
   140001c0e:	00 00 
   140001c10:	e8 5b 0a 00 00       	call   140002670 <__mingw_TLScallback>
   140001c15:	b8 01 00 00 00       	mov    eax,0x1
   140001c1a:	48 83 c4 28          	add    rsp,0x28
   140001c1e:	c3                   	ret
   140001c1f:	90                   	nop

0000000140001c20 <__dyn_tls_init>:
   140001c20:	56                   	push   rsi
   140001c21:	53                   	push   rbx
   140001c22:	48 83 ec 28          	sub    rsp,0x28
   140001c26:	48 8b 05 23 38 00 00 	mov    rax,QWORD PTR [rip+0x3823]        # 140005450 <.refptr._CRT_MT>
   140001c2d:	83 38 02             	cmp    DWORD PTR [rax],0x2
   140001c30:	74 06                	je     140001c38 <__dyn_tls_init+0x18>
   140001c32:	c7 00 02 00 00 00    	mov    DWORD PTR [rax],0x2
   140001c38:	83 fa 02             	cmp    edx,0x2
   140001c3b:	74 13                	je     140001c50 <__dyn_tls_init+0x30>
   140001c3d:	83 fa 01             	cmp    edx,0x1
   140001c40:	74 4e                	je     140001c90 <__dyn_tls_init+0x70>
   140001c42:	b8 01 00 00 00       	mov    eax,0x1
   140001c47:	48 83 c4 28          	add    rsp,0x28
   140001c4b:	5b                   	pop    rbx
   140001c4c:	5e                   	pop    rsi
   140001c4d:	c3                   	ret
   140001c4e:	66 90                	xchg   ax,ax
   140001c50:	48 8d 1d 01 84 00 00 	lea    rbx,[rip+0x8401]        # 14000a058 <__xd_z>
   140001c57:	48 8d 35 fa 83 00 00 	lea    rsi,[rip+0x83fa]        # 14000a058 <__xd_z>
   140001c5e:	48 39 de             	cmp    rsi,rbx
   140001c61:	74 df                	je     140001c42 <__dyn_tls_init+0x22>
   140001c63:	0f 1f 44 00 00       	nop    DWORD PTR [rax+rax*1+0x0]
   140001c68:	48 8b 03             	mov    rax,QWORD PTR [rbx]
   140001c6b:	48 85 c0             	test   rax,rax
   140001c6e:	74 02                	je     140001c72 <__dyn_tls_init+0x52>
   140001c70:	ff d0                	call   rax
   140001c72:	48 83 c3 08          	add    rbx,0x8
   140001c76:	48 39 de             	cmp    rsi,rbx
   140001c79:	75 ed                	jne    140001c68 <__dyn_tls_init+0x48>
   140001c7b:	b8 01 00 00 00       	mov    eax,0x1
   140001c80:	48 83 c4 28          	add    rsp,0x28
   140001c84:	5b                   	pop    rbx
   140001c85:	5e                   	pop    rsi
   140001c86:	c3                   	ret
   140001c87:	66 0f 1f 84 00 00 00 	nop    WORD PTR [rax+rax*1+0x0]
   140001c8e:	00 00 
   140001c90:	e8 db 09 00 00       	call   140002670 <__mingw_TLScallback>
   140001c95:	b8 01 00 00 00       	mov    eax,0x1
   140001c9a:	48 83 c4 28          	add    rsp,0x28
   140001c9e:	5b                   	pop    rbx
   140001c9f:	5e                   	pop    rsi
   140001ca0:	c3                   	ret
   140001ca1:	66 66 2e 0f 1f 84 00 	data16 cs nop WORD PTR [rax+rax*1+0x0]
   140001ca8:	00 00 00 00 
   140001cac:	0f 1f 40 00          	nop    DWORD PTR [rax+0x0]

0000000140001cb0 <__tlregdtor>:
   140001cb0:	31 c0                	xor    eax,eax
   140001cb2:	c3                   	ret
   140001cb3:	90                   	nop
   140001cb4:	90                   	nop
   140001cb5:	90                   	nop
   140001cb6:	90                   	nop
   140001cb7:	90                   	nop
   140001cb8:	90                   	nop
   140001cb9:	90                   	nop
   140001cba:	90                   	nop
   140001cbb:	90                   	nop
   140001cbc:	90                   	nop
   140001cbd:	90                   	nop
   140001cbe:	90                   	nop
   140001cbf:	90                   	nop

0000000140001cc0 <_matherr>:
   140001cc0:	56                   	push   rsi
   140001cc1:	53                   	push   rbx
   140001cc2:	48 83 ec 78          	sub    rsp,0x78
   140001cc6:	0f 29 74 24 40       	movaps XMMWORD PTR [rsp+0x40],xmm6
   140001ccb:	0f 29 7c 24 50       	movaps XMMWORD PTR [rsp+0x50],xmm7
   140001cd0:	44 0f 29 44 24 60    	movaps XMMWORD PTR [rsp+0x60],xmm8
   140001cd6:	83 39 06             	cmp    DWORD PTR [rcx],0x6
   140001cd9:	0f 87 cd 00 00 00    	ja     140001dac <_matherr+0xec>
   140001cdf:	8b 01                	mov    eax,DWORD PTR [rcx]
   140001ce1:	48 8d 15 9c 35 00 00 	lea    rdx,[rip+0x359c]        # 140005284 <.rdata+0x124>
   140001ce8:	48 63 04 82          	movsxd rax,DWORD PTR [rdx+rax*4]
   140001cec:	48 01 d0             	add    rax,rdx
   140001cef:	ff e0                	jmp    rax
   140001cf1:	0f 1f 80 00 00 00 00 	nop    DWORD PTR [rax+0x0]
   140001cf8:	48 8d 1d 80 34 00 00 	lea    rbx,[rip+0x3480]        # 14000517f <.rdata+0x1f>
   140001cff:	48 8b 71 08          	mov    rsi,QWORD PTR [rcx+0x8]
   140001d03:	f2 44 0f 10 41 20    	movsd  xmm8,QWORD PTR [rcx+0x20]
   140001d09:	f2 0f 10 79 18       	movsd  xmm7,QWORD PTR [rcx+0x18]
   140001d0e:	f2 0f 10 71 10       	movsd  xmm6,QWORD PTR [rcx+0x10]
   140001d13:	b9 02 00 00 00       	mov    ecx,0x2
   140001d18:	e8 73 11 00 00       	call   140002e90 <__acrt_iob_func>
   140001d1d:	f2 44 0f 11 44 24 30 	movsd  QWORD PTR [rsp+0x30],xmm8
   140001d24:	49 89 f1             	mov    r9,rsi
   140001d27:	49 89 d8             	mov    r8,rbx
   140001d2a:	f2 0f 11 7c 24 28    	movsd  QWORD PTR [rsp+0x28],xmm7
   140001d30:	48 89 c1             	mov    rcx,rax
   140001d33:	f2 0f 11 74 24 20    	movsd  QWORD PTR [rsp+0x20],xmm6
   140001d39:	48 8d 15 18 35 00 00 	lea    rdx,[rip+0x3518]        # 140005258 <.rdata+0xf8>
   140001d40:	e8 ab 0e 00 00       	call   140002bf0 <fprintf>
   140001d45:	90                   	nop
   140001d46:	0f 28 74 24 40       	movaps xmm6,XMMWORD PTR [rsp+0x40]
   140001d4b:	31 c0                	xor    eax,eax
   140001d4d:	0f 28 7c 24 50       	movaps xmm7,XMMWORD PTR [rsp+0x50]
   140001d52:	44 0f 28 44 24 60    	movaps xmm8,XMMWORD PTR [rsp+0x60]
   140001d58:	48 83 c4 78          	add    rsp,0x78
   140001d5c:	5b                   	pop    rbx
   140001d5d:	5e                   	pop    rsi
   140001d5e:	c3                   	ret
   140001d5f:	90                   	nop
   140001d60:	48 8d 1d f9 33 00 00 	lea    rbx,[rip+0x33f9]        # 140005160 <.rdata>
   140001d67:	eb 96                	jmp    140001cff <_matherr+0x3f>
   140001d69:	0f 1f 80 00 00 00 00 	nop    DWORD PTR [rax+0x0]
   140001d70:	48 8d 1d 49 34 00 00 	lea    rbx,[rip+0x3449]        # 1400051c0 <.rdata+0x60>
   140001d77:	eb 86                	jmp    140001cff <_matherr+0x3f>
   140001d79:	0f 1f 80 00 00 00 00 	nop    DWORD PTR [rax+0x0]
   140001d80:	48 8d 1d 19 34 00 00 	lea    rbx,[rip+0x3419]        # 1400051a0 <.rdata+0x40>
   140001d87:	e9 73 ff ff ff       	jmp    140001cff <_matherr+0x3f>
   140001d8c:	0f 1f 40 00          	nop    DWORD PTR [rax+0x0]
   140001d90:	48 8d 1d 79 34 00 00 	lea    rbx,[rip+0x3479]        # 140005210 <.rdata+0xb0>
   140001d97:	e9 63 ff ff ff       	jmp    140001cff <_matherr+0x3f>
   140001d9c:	0f 1f 40 00          	nop    DWORD PTR [rax+0x0]
   140001da0:	48 8d 1d 41 34 00 00 	lea    rbx,[rip+0x3441]        # 1400051e8 <.rdata+0x88>
   140001da7:	e9 53 ff ff ff       	jmp    140001cff <_matherr+0x3f>
   140001dac:	48 8d 1d 93 34 00 00 	lea    rbx,[rip+0x3493]        # 140005246 <.rdata+0xe6>
   140001db3:	e9 47 ff ff ff       	jmp    140001cff <_matherr+0x3f>
   140001db8:	90                   	nop
   140001db9:	90                   	nop
   140001dba:	90                   	nop
   140001dbb:	90                   	nop
   140001dbc:	90                   	nop
   140001dbd:	90                   	nop
   140001dbe:	90                   	nop
   140001dbf:	90                   	nop

0000000140001dc0 <_fpreset>:
   140001dc0:	db e3                	fninit
   140001dc2:	c3                   	ret
   140001dc3:	90                   	nop
   140001dc4:	90                   	nop
   140001dc5:	90                   	nop
   140001dc6:	90                   	nop
   140001dc7:	90                   	nop
   140001dc8:	90                   	nop
   140001dc9:	90                   	nop
   140001dca:	90                   	nop
   140001dcb:	90                   	nop
   140001dcc:	90                   	nop
   140001dcd:	90                   	nop
   140001dce:	90                   	nop
   140001dcf:	90                   	nop

0000000140001dd0 <__report_error>:
   140001dd0:	56                   	push   rsi
   140001dd1:	53                   	push   rbx
   140001dd2:	48 83 ec 38          	sub    rsp,0x38
   140001dd6:	48 8d 44 24 58       	lea    rax,[rsp+0x58]
   140001ddb:	48 89 cb             	mov    rbx,rcx
   140001dde:	b9 02 00 00 00       	mov    ecx,0x2
   140001de3:	48 89 54 24 58       	mov    QWORD PTR [rsp+0x58],rdx
   140001de8:	4c 89 44 24 60       	mov    QWORD PTR [rsp+0x60],r8
   140001ded:	4c 89 4c 24 68       	mov    QWORD PTR [rsp+0x68],r9
   140001df2:	48 89 44 24 28       	mov    QWORD PTR [rsp+0x28],rax
   140001df7:	e8 94 10 00 00       	call   140002e90 <__acrt_iob_func>
   140001dfc:	41 b8 1b 00 00 00    	mov    r8d,0x1b
   140001e02:	ba 01 00 00 00       	mov    edx,0x1
   140001e07:	48 8d 0d 92 34 00 00 	lea    rcx,[rip+0x3492]        # 1400052a0 <.rdata>
   140001e0e:	49 89 c1             	mov    r9,rax
   140001e11:	e8 b2 10 00 00       	call   140002ec8 <fwrite>
   140001e16:	48 8b 74 24 28       	mov    rsi,QWORD PTR [rsp+0x28]
   140001e1b:	b9 02 00 00 00       	mov    ecx,0x2
   140001e20:	e8 6b 10 00 00       	call   140002e90 <__acrt_iob_func>
   140001e25:	48 89 da             	mov    rdx,rbx
   140001e28:	48 89 c1             	mov    rcx,rax
   140001e2b:	49 89 f0             	mov    r8,rsi
   140001e2e:	e8 9d 0d 00 00       	call   140002bd0 <vfprintf>
   140001e33:	e8 00 11 00 00       	call   140002f38 <abort>
   140001e38:	90                   	nop
   140001e39:	0f 1f 80 00 00 00 00 	nop    DWORD PTR [rax+0x0]

0000000140001e40 <mark_section_writable>:
   140001e40:	57                   	push   rdi
   140001e41:	56                   	push   rsi
   140001e42:	53                   	push   rbx
   140001e43:	48 83 ec 50          	sub    rsp,0x50
   140001e47:	48 63 35 56 62 00 00 	movsxd rsi,DWORD PTR [rip+0x6256]        # 1400080a4 <maxSections>
   140001e4e:	85 f6                	test   esi,esi
   140001e50:	48 89 cb             	mov    rbx,rcx
   140001e53:	0f 8e 17 01 00 00    	jle    140001f70 <mark_section_writable+0x130>
   140001e59:	48 8b 05 48 62 00 00 	mov    rax,QWORD PTR [rip+0x6248]        # 1400080a8 <the_secs>
   140001e60:	45 31 c9             	xor    r9d,r9d
   140001e63:	48 83 c0 18          	add    rax,0x18
   140001e67:	66 0f 1f 84 00 00 00 	nop    WORD PTR [rax+rax*1+0x0]
   140001e6e:	00 00 
   140001e70:	4c 8b 00             	mov    r8,QWORD PTR [rax]
   140001e73:	4c 39 c3             	cmp    rbx,r8
   140001e76:	72 13                	jb     140001e8b <mark_section_writable+0x4b>
   140001e78:	48 8b 50 08          	mov    rdx,QWORD PTR [rax+0x8]
   140001e7c:	8b 52 08             	mov    edx,DWORD PTR [rdx+0x8]
   140001e7f:	49 01 d0             	add    r8,rdx
   140001e82:	4c 39 c3             	cmp    rbx,r8
   140001e85:	0f 82 8a 00 00 00    	jb     140001f15 <mark_section_writable+0xd5>
   140001e8b:	41 83 c1 01          	add    r9d,0x1
   140001e8f:	48 83 c0 28          	add    rax,0x28
   140001e93:	41 39 f1             	cmp    r9d,esi
   140001e96:	75 d8                	jne    140001e70 <mark_section_writable+0x30>
   140001e98:	48 89 d9             	mov    rcx,rbx
   140001e9b:	e8 10 0a 00 00       	call   1400028b0 <__mingw_GetSectionForAddress>
   140001ea0:	48 85 c0             	test   rax,rax
   140001ea3:	48 89 c7             	mov    rdi,rax
   140001ea6:	0f 84 e6 00 00 00    	je     140001f92 <mark_section_writable+0x152>
   140001eac:	48 8b 05 f5 61 00 00 	mov    rax,QWORD PTR [rip+0x61f5]        # 1400080a8 <the_secs>
   140001eb3:	48 8d 1c b6          	lea    rbx,[rsi+rsi*4]
   140001eb7:	48 c1 e3 03          	shl    rbx,0x3
   140001ebb:	48 01 d8             	add    rax,rbx
   140001ebe:	48 89 78 20          	mov    QWORD PTR [rax+0x20],rdi
   140001ec2:	c7 00 00 00 00 00    	mov    DWORD PTR [rax],0x0
   140001ec8:	e8 23 0b 00 00       	call   1400029f0 <_GetPEImageBase>
   140001ecd:	8b 57 0c             	mov    edx,DWORD PTR [rdi+0xc]
   140001ed0:	41 b8 30 00 00 00    	mov    r8d,0x30
   140001ed6:	48 8d 0c 10          	lea    rcx,[rax+rdx*1]
   140001eda:	48 8b 05 c7 61 00 00 	mov    rax,QWORD PTR [rip+0x61c7]        # 1400080a8 <the_secs>
   140001ee1:	48 8d 54 24 20       	lea    rdx,[rsp+0x20]
   140001ee6:	48 89 4c 18 18       	mov    QWORD PTR [rax+rbx*1+0x18],rcx
   140001eeb:	ff 15 ff 73 00 00    	call   QWORD PTR [rip+0x73ff]        # 1400092f0 <__imp_VirtualQuery>
   140001ef1:	48 85 c0             	test   rax,rax
   140001ef4:	0f 84 7d 00 00 00    	je     140001f77 <mark_section_writable+0x137>
   140001efa:	8b 44 24 44          	mov    eax,DWORD PTR [rsp+0x44]
   140001efe:	8d 50 c0             	lea    edx,[rax-0x40]
   140001f01:	83 e2 bf             	and    edx,0xffffffbf
   140001f04:	74 08                	je     140001f0e <mark_section_writable+0xce>
   140001f06:	8d 50 fc             	lea    edx,[rax-0x4]
   140001f09:	83 e2 fb             	and    edx,0xfffffffb
   140001f0c:	75 12                	jne    140001f20 <mark_section_writable+0xe0>
   140001f0e:	83 05 8f 61 00 00 01 	add    DWORD PTR [rip+0x618f],0x1        # 1400080a4 <maxSections>
   140001f15:	48 83 c4 50          	add    rsp,0x50
   140001f19:	5b                   	pop    rbx
   140001f1a:	5e                   	pop    rsi
   140001f1b:	5f                   	pop    rdi
   140001f1c:	c3                   	ret
   140001f1d:	0f 1f 00             	nop    DWORD PTR [rax]
   140001f20:	83 f8 02             	cmp    eax,0x2
   140001f23:	41 b8 40 00 00 00    	mov    r8d,0x40
   140001f29:	b8 04 00 00 00       	mov    eax,0x4
   140001f2e:	48 8b 4c 24 20       	mov    rcx,QWORD PTR [rsp+0x20]
   140001f33:	44 0f 44 c0          	cmove  r8d,eax
   140001f37:	48 8b 54 24 38       	mov    rdx,QWORD PTR [rsp+0x38]
   140001f3c:	48 03 1d 65 61 00 00 	add    rbx,QWORD PTR [rip+0x6165]        # 1400080a8 <the_secs>
   140001f43:	49 89 d9             	mov    r9,rbx
   140001f46:	48 89 4b 08          	mov    QWORD PTR [rbx+0x8],rcx
   140001f4a:	48 89 53 10          	mov    QWORD PTR [rbx+0x10],rdx
   140001f4e:	ff 15 94 73 00 00    	call   QWORD PTR [rip+0x7394]        # 1400092e8 <__imp_VirtualProtect>
   140001f54:	85 c0                	test   eax,eax
   140001f56:	75 b6                	jne    140001f0e <mark_section_writable+0xce>
   140001f58:	ff 15 5a 73 00 00    	call   QWORD PTR [rip+0x735a]        # 1400092b8 <__imp_GetLastError>
   140001f5e:	48 8d 0d b3 33 00 00 	lea    rcx,[rip+0x33b3]        # 140005318 <.rdata+0x78>
   140001f65:	89 c2                	mov    edx,eax
   140001f67:	e8 64 fe ff ff       	call   140001dd0 <__report_error>
   140001f6c:	0f 1f 40 00          	nop    DWORD PTR [rax+0x0]
   140001f70:	31 f6                	xor    esi,esi
   140001f72:	e9 21 ff ff ff       	jmp    140001e98 <mark_section_writable+0x58>
   140001f77:	48 8b 05 2a 61 00 00 	mov    rax,QWORD PTR [rip+0x612a]        # 1400080a8 <the_secs>
   140001f7e:	48 8d 0d 5b 33 00 00 	lea    rcx,[rip+0x335b]        # 1400052e0 <.rdata+0x40>
   140001f85:	8b 57 08             	mov    edx,DWORD PTR [rdi+0x8]
   140001f88:	4c 8b 44 18 18       	mov    r8,QWORD PTR [rax+rbx*1+0x18]
   140001f8d:	e8 3e fe ff ff       	call   140001dd0 <__report_error>
   140001f92:	48 8d 0d 27 33 00 00 	lea    rcx,[rip+0x3327]        # 1400052c0 <.rdata+0x20>
   140001f99:	48 89 da             	mov    rdx,rbx
   140001f9c:	e8 2f fe ff ff       	call   140001dd0 <__report_error>
   140001fa1:	90                   	nop
   140001fa2:	66 66 2e 0f 1f 84 00 	data16 cs nop WORD PTR [rax+rax*1+0x0]
   140001fa9:	00 00 00 00 
   140001fad:	0f 1f 00             	nop    DWORD PTR [rax]

0000000140001fb0 <_pei386_runtime_relocator>:
   140001fb0:	55                   	push   rbp
   140001fb1:	41 57                	push   r15
   140001fb3:	41 56                	push   r14
   140001fb5:	41 55                	push   r13
   140001fb7:	41 54                	push   r12
   140001fb9:	57                   	push   rdi
   140001fba:	56                   	push   rsi
   140001fbb:	53                   	push   rbx
   140001fbc:	48 83 ec 48          	sub    rsp,0x48
   140001fc0:	48 8d 6c 24 40       	lea    rbp,[rsp+0x40]
   140001fc5:	8b 3d d5 60 00 00    	mov    edi,DWORD PTR [rip+0x60d5]        # 1400080a0 <was_init.0>
   140001fcb:	85 ff                	test   edi,edi
   140001fcd:	74 11                	je     140001fe0 <_pei386_runtime_relocator+0x30>
   140001fcf:	48 8d 65 08          	lea    rsp,[rbp+0x8]
   140001fd3:	5b                   	pop    rbx
   140001fd4:	5e                   	pop    rsi
   140001fd5:	5f                   	pop    rdi
   140001fd6:	41 5c                	pop    r12
   140001fd8:	41 5d                	pop    r13
   140001fda:	41 5e                	pop    r14
   140001fdc:	41 5f                	pop    r15
   140001fde:	5d                   	pop    rbp
   140001fdf:	c3                   	ret
   140001fe0:	c7 05 b6 60 00 00 01 	mov    DWORD PTR [rip+0x60b6],0x1        # 1400080a0 <was_init.0>
   140001fe7:	00 00 00 
   140001fea:	e8 41 09 00 00       	call   140002930 <__mingw_GetSectionCount>
   140001fef:	48 98                	cdqe
   140001ff1:	48 8d 04 80          	lea    rax,[rax+rax*4]
   140001ff5:	48 8d 04 c5 0f 00 00 	lea    rax,[rax*8+0xf]
   140001ffc:	00 
   140001ffd:	48 83 e0 f0          	and    rax,0xfffffffffffffff0
   140002001:	e8 8a 0b 00 00       	call   140002b90 <___chkstk_ms>
   140002006:	4c 8b 2d 73 34 00 00 	mov    r13,QWORD PTR [rip+0x3473]        # 140005480 <.refptr.__RUNTIME_PSEUDO_RELOC_LIST_END__>
   14000200d:	c7 05 8d 60 00 00 00 	mov    DWORD PTR [rip+0x608d],0x0        # 1400080a4 <maxSections>
   140002014:	00 00 00 
   140002017:	48 8b 1d 72 34 00 00 	mov    rbx,QWORD PTR [rip+0x3472]        # 140005490 <.refptr.__RUNTIME_PSEUDO_RELOC_LIST__>
   14000201e:	48 29 c4             	sub    rsp,rax
   140002021:	48 8d 44 24 30       	lea    rax,[rsp+0x30]
   140002026:	48 89 05 7b 60 00 00 	mov    QWORD PTR [rip+0x607b],rax        # 1400080a8 <the_secs>
   14000202d:	4c 89 e8             	mov    rax,r13
   140002030:	48 29 d8             	sub    rax,rbx
   140002033:	48 83 f8 07          	cmp    rax,0x7
   140002037:	7e 96                	jle    140001fcf <_pei386_runtime_relocator+0x1f>
   140002039:	48 83 f8 0b          	cmp    rax,0xb
   14000203d:	8b 13                	mov    edx,DWORD PTR [rbx]
   14000203f:	0f 8f 83 01 00 00    	jg     1400021c8 <_pei386_runtime_relocator+0x218>
   140002045:	8b 03                	mov    eax,DWORD PTR [rbx]
   140002047:	85 c0                	test   eax,eax
   140002049:	0f 85 71 02 00 00    	jne    1400022c0 <_pei386_runtime_relocator+0x310>
   14000204f:	8b 43 04             	mov    eax,DWORD PTR [rbx+0x4]
   140002052:	85 c0                	test   eax,eax
   140002054:	0f 85 66 02 00 00    	jne    1400022c0 <_pei386_runtime_relocator+0x310>
   14000205a:	8b 53 08             	mov    edx,DWORD PTR [rbx+0x8]
   14000205d:	83 fa 01             	cmp    edx,0x1
   140002060:	0f 85 9c 02 00 00    	jne    140002302 <_pei386_runtime_relocator+0x352>
   140002066:	48 83 c3 0c          	add    rbx,0xc
   14000206a:	4c 39 eb             	cmp    rbx,r13
   14000206d:	0f 83 5c ff ff ff    	jae    140001fcf <_pei386_runtime_relocator+0x1f>
   140002073:	4c 8b 25 36 34 00 00 	mov    r12,QWORD PTR [rip+0x3436]        # 1400054b0 <.refptr.__image_base__>
   14000207a:	49 bf ff ff ff 7f ff 	movabs r15,0xffffffff7fffffff
   140002081:	ff ff ff 
   140002084:	eb 5d                	jmp    1400020e3 <_pei386_runtime_relocator+0x133>
   140002086:	66 2e 0f 1f 84 00 00 	cs nop WORD PTR [rax+rax*1+0x0]
   14000208d:	00 00 00 
   140002090:	41 0f b6 36          	movzx  esi,BYTE PTR [r14]
   140002094:	81 e1 c0 00 00 00    	and    ecx,0xc0
   14000209a:	40 84 f6             	test   sil,sil
   14000209d:	0f 89 05 02 00 00    	jns    1400022a8 <_pei386_runtime_relocator+0x2f8>
   1400020a3:	48 81 ce 00 ff ff ff 	or     rsi,0xffffffffffffff00
   1400020aa:	48 29 c6             	sub    rsi,rax
   1400020ad:	4c 01 ce             	add    rsi,r9
   1400020b0:	85 c9                	test   ecx,ecx
   1400020b2:	75 17                	jne    1400020cb <_pei386_runtime_relocator+0x11b>
   1400020b4:	48 81 fe ff 00 00 00 	cmp    rsi,0xff
   1400020bb:	0f 8f 4e 01 00 00    	jg     14000220f <_pei386_runtime_relocator+0x25f>
   1400020c1:	48 83 fe 80          	cmp    rsi,0xffffffffffffff80
   1400020c5:	0f 8c 44 01 00 00    	jl     14000220f <_pei386_runtime_relocator+0x25f>
   1400020cb:	4c 89 f1             	mov    rcx,r14
   1400020ce:	e8 6d fd ff ff       	call   140001e40 <mark_section_writable>
   1400020d3:	41 88 36             	mov    BYTE PTR [r14],sil
   1400020d6:	48 83 c3 0c          	add    rbx,0xc
   1400020da:	4c 39 eb             	cmp    rbx,r13
   1400020dd:	0f 83 8d 00 00 00    	jae    140002170 <_pei386_runtime_relocator+0x1c0>
   1400020e3:	8b 4b 08             	mov    ecx,DWORD PTR [rbx+0x8]
   1400020e6:	8b 03                	mov    eax,DWORD PTR [rbx]
   1400020e8:	44 8b 43 04          	mov    r8d,DWORD PTR [rbx+0x4]
   1400020ec:	0f b6 d1             	movzx  edx,cl
   1400020ef:	4c 01 e0             	add    rax,r12
   1400020f2:	83 fa 20             	cmp    edx,0x20
   1400020f5:	4c 8b 08             	mov    r9,QWORD PTR [rax]
   1400020f8:	4f 8d 34 20          	lea    r14,[r8+r12*1]
   1400020fc:	0f 84 26 01 00 00    	je     140002228 <_pei386_runtime_relocator+0x278>
   140002102:	0f 87 e8 00 00 00    	ja     1400021f0 <_pei386_runtime_relocator+0x240>
   140002108:	83 fa 08             	cmp    edx,0x8
   14000210b:	74 83                	je     140002090 <_pei386_runtime_relocator+0xe0>
   14000210d:	83 fa 10             	cmp    edx,0x10
   140002110:	0f 85 e0 01 00 00    	jne    1400022f6 <_pei386_runtime_relocator+0x346>
   140002116:	41 0f b7 36          	movzx  esi,WORD PTR [r14]
   14000211a:	81 e1 c0 00 00 00    	and    ecx,0xc0
   140002120:	66 85 f6             	test   si,si
   140002123:	0f 89 67 01 00 00    	jns    140002290 <_pei386_runtime_relocator+0x2e0>
   140002129:	48 81 ce 00 00 ff ff 	or     rsi,0xffffffffffff0000
   140002130:	48 29 c6             	sub    rsi,rax
   140002133:	4c 01 ce             	add    rsi,r9
   140002136:	85 c9                	test   ecx,ecx
   140002138:	75 1a                	jne    140002154 <_pei386_runtime_relocator+0x1a4>
   14000213a:	48 81 fe 00 80 ff ff 	cmp    rsi,0xffffffffffff8000
   140002141:	0f 8c c8 00 00 00    	jl     14000220f <_pei386_runtime_relocator+0x25f>
   140002147:	48 81 fe ff ff 00 00 	cmp    rsi,0xffff
   14000214e:	0f 8f bb 00 00 00    	jg     14000220f <_pei386_runtime_relocator+0x25f>
   140002154:	4c 89 f1             	mov    rcx,r14
   140002157:	48 83 c3 0c          	add    rbx,0xc
   14000215b:	e8 e0 fc ff ff       	call   140001e40 <mark_section_writable>
   140002160:	4c 39 eb             	cmp    rbx,r13
   140002163:	66 41 89 36          	mov    WORD PTR [r14],si
   140002167:	0f 82 76 ff ff ff    	jb     1400020e3 <_pei386_runtime_relocator+0x133>
   14000216d:	0f 1f 00             	nop    DWORD PTR [rax]
   140002170:	8b 15 2e 5f 00 00    	mov    edx,DWORD PTR [rip+0x5f2e]        # 1400080a4 <maxSections>
   140002176:	85 d2                	test   edx,edx
   140002178:	0f 8e 51 fe ff ff    	jle    140001fcf <_pei386_runtime_relocator+0x1f>
   14000217e:	48 8b 35 63 71 00 00 	mov    rsi,QWORD PTR [rip+0x7163]        # 1400092e8 <__imp_VirtualProtect>
   140002185:	4c 8d 65 fc          	lea    r12,[rbp-0x4]
   140002189:	31 db                	xor    ebx,ebx
   14000218b:	0f 1f 44 00 00       	nop    DWORD PTR [rax+rax*1+0x0]
   140002190:	48 8b 05 11 5f 00 00 	mov    rax,QWORD PTR [rip+0x5f11]        # 1400080a8 <the_secs>
   140002197:	48 01 d8             	add    rax,rbx
   14000219a:	44 8b 00             	mov    r8d,DWORD PTR [rax]
   14000219d:	45 85 c0             	test   r8d,r8d
   1400021a0:	74 0d                	je     1400021af <_pei386_runtime_relocator+0x1ff>
   1400021a2:	48 8b 50 10          	mov    rdx,QWORD PTR [rax+0x10]
   1400021a6:	4d 89 e1             	mov    r9,r12
   1400021a9:	48 8b 48 08          	mov    rcx,QWORD PTR [rax+0x8]
   1400021ad:	ff d6                	call   rsi
   1400021af:	83 c7 01             	add    edi,0x1
   1400021b2:	48 83 c3 28          	add    rbx,0x28
   1400021b6:	3b 3d e8 5e 00 00    	cmp    edi,DWORD PTR [rip+0x5ee8]        # 1400080a4 <maxSections>
   1400021bc:	7c d2                	jl     140002190 <_pei386_runtime_relocator+0x1e0>
   1400021be:	e9 0c fe ff ff       	jmp    140001fcf <_pei386_runtime_relocator+0x1f>
   1400021c3:	0f 1f 44 00 00       	nop    DWORD PTR [rax+rax*1+0x0]
   1400021c8:	85 d2                	test   edx,edx
   1400021ca:	0f 85 f0 00 00 00    	jne    1400022c0 <_pei386_runtime_relocator+0x310>
   1400021d0:	8b 43 04             	mov    eax,DWORD PTR [rbx+0x4]
   1400021d3:	89 c2                	mov    edx,eax
   1400021d5:	0b 53 08             	or     edx,DWORD PTR [rbx+0x8]
   1400021d8:	0f 85 74 fe ff ff    	jne    140002052 <_pei386_runtime_relocator+0xa2>
   1400021de:	48 83 c3 0c          	add    rbx,0xc
   1400021e2:	e9 5e fe ff ff       	jmp    140002045 <_pei386_runtime_relocator+0x95>
   1400021e7:	66 0f 1f 84 00 00 00 	nop    WORD PTR [rax+rax*1+0x0]
   1400021ee:	00 00 
   1400021f0:	83 fa 40             	cmp    edx,0x40
   1400021f3:	0f 85 fd 00 00 00    	jne    1400022f6 <_pei386_runtime_relocator+0x346>
   1400021f9:	49 8b 36             	mov    rsi,QWORD PTR [r14]
   1400021fc:	48 29 c6             	sub    rsi,rax
   1400021ff:	4c 01 ce             	add    rsi,r9
   140002202:	81 e1 c0 00 00 00    	and    ecx,0xc0
   140002208:	75 66                	jne    140002270 <_pei386_runtime_relocator+0x2c0>
   14000220a:	48 85 f6             	test   rsi,rsi
   14000220d:	78 61                	js     140002270 <_pei386_runtime_relocator+0x2c0>
   14000220f:	48 89 74 24 20       	mov    QWORD PTR [rsp+0x20],rsi
   140002214:	48 8d 0d 8d 31 00 00 	lea    rcx,[rip+0x318d]        # 1400053a8 <.rdata+0x108>
   14000221b:	4d 89 f0             	mov    r8,r14
   14000221e:	e8 ad fb ff ff       	call   140001dd0 <__report_error>
   140002223:	0f 1f 44 00 00       	nop    DWORD PTR [rax+rax*1+0x0]
   140002228:	41 8b 36             	mov    esi,DWORD PTR [r14]
   14000222b:	81 e1 c0 00 00 00    	and    ecx,0xc0
   140002231:	85 f6                	test   esi,esi
   140002233:	79 4b                	jns    140002280 <_pei386_runtime_relocator+0x2d0>
   140002235:	49 bb 00 00 00 00 ff 	movabs r11,0xffffffff00000000
   14000223c:	ff ff ff 
   14000223f:	4c 09 de             	or     rsi,r11
   140002242:	48 29 c6             	sub    rsi,rax
   140002245:	4c 01 ce             	add    rsi,r9
   140002248:	85 c9                	test   ecx,ecx
   14000224a:	75 0f                	jne    14000225b <_pei386_runtime_relocator+0x2ab>
   14000224c:	4c 39 fe             	cmp    rsi,r15
   14000224f:	7e be                	jle    14000220f <_pei386_runtime_relocator+0x25f>
   140002251:	b8 ff ff ff ff       	mov    eax,0xffffffff
   140002256:	48 39 c6             	cmp    rsi,rax
   140002259:	7f b4                	jg     14000220f <_pei386_runtime_relocator+0x25f>
   14000225b:	4c 89 f1             	mov    rcx,r14
   14000225e:	e8 dd fb ff ff       	call   140001e40 <mark_section_writable>
   140002263:	41 89 36             	mov    DWORD PTR [r14],esi
   140002266:	e9 6b fe ff ff       	jmp    1400020d6 <_pei386_runtime_relocator+0x126>
   14000226b:	0f 1f 44 00 00       	nop    DWORD PTR [rax+rax*1+0x0]
   140002270:	4c 89 f1             	mov    rcx,r14
   140002273:	e8 c8 fb ff ff       	call   140001e40 <mark_section_writable>
   140002278:	49 89 36             	mov    QWORD PTR [r14],rsi
   14000227b:	e9 56 fe ff ff       	jmp    1400020d6 <_pei386_runtime_relocator+0x126>
   140002280:	48 29 c6             	sub    rsi,rax
   140002283:	4c 01 ce             	add    rsi,r9
   140002286:	85 c9                	test   ecx,ecx
   140002288:	74 c2                	je     14000224c <_pei386_runtime_relocator+0x29c>
   14000228a:	eb cf                	jmp    14000225b <_pei386_runtime_relocator+0x2ab>
   14000228c:	0f 1f 40 00          	nop    DWORD PTR [rax+0x0]
   140002290:	48 29 c6             	sub    rsi,rax
   140002293:	4c 01 ce             	add    rsi,r9
   140002296:	85 c9                	test   ecx,ecx
   140002298:	0f 84 9c fe ff ff    	je     14000213a <_pei386_runtime_relocator+0x18a>
   14000229e:	e9 b1 fe ff ff       	jmp    140002154 <_pei386_runtime_relocator+0x1a4>
   1400022a3:	0f 1f 44 00 00       	nop    DWORD PTR [rax+rax*1+0x0]
   1400022a8:	48 29 c6             	sub    rsi,rax
   1400022ab:	4c 01 ce             	add    rsi,r9
   1400022ae:	85 c9                	test   ecx,ecx
   1400022b0:	0f 84 fe fd ff ff    	je     1400020b4 <_pei386_runtime_relocator+0x104>
   1400022b6:	e9 10 fe ff ff       	jmp    1400020cb <_pei386_runtime_relocator+0x11b>
   1400022bb:	0f 1f 44 00 00       	nop    DWORD PTR [rax+rax*1+0x0]
   1400022c0:	4c 39 eb             	cmp    rbx,r13
   1400022c3:	0f 83 06 fd ff ff    	jae    140001fcf <_pei386_runtime_relocator+0x1f>
   1400022c9:	4c 8b 35 e0 31 00 00 	mov    r14,QWORD PTR [rip+0x31e0]        # 1400054b0 <.refptr.__image_base__>
   1400022d0:	8b 73 04             	mov    esi,DWORD PTR [rbx+0x4]
   1400022d3:	48 83 c3 08          	add    rbx,0x8
   1400022d7:	44 8b 63 f8          	mov    r12d,DWORD PTR [rbx-0x8]
   1400022db:	4c 01 f6             	add    rsi,r14
   1400022de:	44 03 26             	add    r12d,DWORD PTR [rsi]
   1400022e1:	48 89 f1             	mov    rcx,rsi
   1400022e4:	e8 57 fb ff ff       	call   140001e40 <mark_section_writable>
   1400022e9:	4c 39 eb             	cmp    rbx,r13
   1400022ec:	44 89 26             	mov    DWORD PTR [rsi],r12d
   1400022ef:	72 df                	jb     1400022d0 <_pei386_runtime_relocator+0x320>
   1400022f1:	e9 7a fe ff ff       	jmp    140002170 <_pei386_runtime_relocator+0x1c0>
   1400022f6:	48 8d 0d 7b 30 00 00 	lea    rcx,[rip+0x307b]        # 140005378 <.rdata+0xd8>
   1400022fd:	e8 ce fa ff ff       	call   140001dd0 <__report_error>
   140002302:	48 8d 0d 37 30 00 00 	lea    rcx,[rip+0x3037]        # 140005340 <.rdata+0xa0>
   140002309:	e8 c2 fa ff ff       	call   140001dd0 <__report_error>
   14000230e:	90                   	nop
   14000230f:	90                   	nop

0000000140002310 <__mingw_raise_matherr>:
   140002310:	48 83 ec 58          	sub    rsp,0x58
   140002314:	48 8b 05 95 5d 00 00 	mov    rax,QWORD PTR [rip+0x5d95]        # 1400080b0 <stUserMathErr>
   14000231b:	48 85 c0             	test   rax,rax
   14000231e:	66 0f 14 d3          	unpcklpd xmm2,xmm3
   140002322:	74 25                	je     140002349 <__mingw_raise_matherr+0x39>
   140002324:	f2 0f 10 84 24 80 00 	movsd  xmm0,QWORD PTR [rsp+0x80]
   14000232b:	00 00 
   14000232d:	89 4c 24 20          	mov    DWORD PTR [rsp+0x20],ecx
   140002331:	48 8d 4c 24 20       	lea    rcx,[rsp+0x20]
   140002336:	48 89 54 24 28       	mov    QWORD PTR [rsp+0x28],rdx
   14000233b:	0f 29 54 24 30       	movaps XMMWORD PTR [rsp+0x30],xmm2
   140002340:	f2 0f 11 44 24 40    	movsd  QWORD PTR [rsp+0x40],xmm0
   140002346:	ff d0                	call   rax
   140002348:	90                   	nop
   140002349:	48 83 c4 58          	add    rsp,0x58
   14000234d:	c3                   	ret
   14000234e:	66 90                	xchg   ax,ax

0000000140002350 <__mingw_setusermatherr>:
   140002350:	48 89 0d 59 5d 00 00 	mov    QWORD PTR [rip+0x5d59],rcx        # 1400080b0 <stUserMathErr>
   140002357:	e9 04 0c 00 00       	jmp    140002f60 <__setusermatherr>
   14000235c:	90                   	nop
   14000235d:	90                   	nop
   14000235e:	90                   	nop
   14000235f:	90                   	nop

0000000140002360 <_gnu_exception_handler>:
   140002360:	53                   	push   rbx
   140002361:	48 83 ec 20          	sub    rsp,0x20
   140002365:	48 8b 11             	mov    rdx,QWORD PTR [rcx]
   140002368:	8b 02                	mov    eax,DWORD PTR [rdx]
   14000236a:	48 89 cb             	mov    rbx,rcx
   14000236d:	89 c1                	mov    ecx,eax
   14000236f:	81 e1 ff ff ff 20    	and    ecx,0x20ffffff
   140002375:	81 f9 43 43 47 20    	cmp    ecx,0x20474343
   14000237b:	0f 84 9f 00 00 00    	je     140002420 <_gnu_exception_handler+0xc0>
   140002381:	3d 96 00 00 c0       	cmp    eax,0xc0000096
   140002386:	77 77                	ja     1400023ff <_gnu_exception_handler+0x9f>
   140002388:	3d 8b 00 00 c0       	cmp    eax,0xc000008b
   14000238d:	76 21                	jbe    1400023b0 <_gnu_exception_handler+0x50>
   14000238f:	05 73 ff ff 3f       	add    eax,0x3fffff73
   140002394:	83 f8 09             	cmp    eax,0x9
   140002397:	77 54                	ja     1400023ed <_gnu_exception_handler+0x8d>
   140002399:	48 8d 15 60 30 00 00 	lea    rdx,[rip+0x3060]        # 140005400 <.rdata>
   1400023a0:	48 63 04 82          	movsxd rax,DWORD PTR [rdx+rax*4]
   1400023a4:	48 01 d0             	add    rax,rdx
   1400023a7:	ff e0                	jmp    rax
   1400023a9:	0f 1f 80 00 00 00 00 	nop    DWORD PTR [rax+0x0]
   1400023b0:	3d 05 00 00 c0       	cmp    eax,0xc0000005
   1400023b5:	0f 84 d5 00 00 00    	je     140002490 <_gnu_exception_handler+0x130>
   1400023bb:	76 3b                	jbe    1400023f8 <_gnu_exception_handler+0x98>
   1400023bd:	3d 08 00 00 c0       	cmp    eax,0xc0000008
   1400023c2:	74 29                	je     1400023ed <_gnu_exception_handler+0x8d>
   1400023c4:	3d 1d 00 00 c0       	cmp    eax,0xc000001d
   1400023c9:	75 34                	jne    1400023ff <_gnu_exception_handler+0x9f>
   1400023cb:	31 d2                	xor    edx,edx
   1400023cd:	b9 04 00 00 00       	mov    ecx,0x4
   1400023d2:	e8 69 0b 00 00       	call   140002f40 <signal>
   1400023d7:	48 83 f8 01          	cmp    rax,0x1
   1400023db:	0f 84 d6 00 00 00    	je     1400024b7 <_gnu_exception_handler+0x157>
   1400023e1:	48 85 c0             	test   rax,rax
   1400023e4:	74 19                	je     1400023ff <_gnu_exception_handler+0x9f>
   1400023e6:	b9 04 00 00 00       	mov    ecx,0x4
   1400023eb:	ff d0                	call   rax
   1400023ed:	b8 ff ff ff ff       	mov    eax,0xffffffff
   1400023f2:	48 83 c4 20          	add    rsp,0x20
   1400023f6:	5b                   	pop    rbx
   1400023f7:	c3                   	ret
   1400023f8:	3d 02 00 00 80       	cmp    eax,0x80000002
   1400023fd:	74 ee                	je     1400023ed <_gnu_exception_handler+0x8d>
   1400023ff:	48 8b 05 ca 5c 00 00 	mov    rax,QWORD PTR [rip+0x5cca]        # 1400080d0 <__mingw_oldexcpt_handler>
   140002406:	48 85 c0             	test   rax,rax
   140002409:	74 25                	je     140002430 <_gnu_exception_handler+0xd0>
   14000240b:	48 89 d9             	mov    rcx,rbx
   14000240e:	48 83 c4 20          	add    rsp,0x20
   140002412:	5b                   	pop    rbx
   140002413:	48 ff e0             	rex.W jmp rax
   140002416:	66 2e 0f 1f 84 00 00 	cs nop WORD PTR [rax+rax*1+0x0]
   14000241d:	00 00 00 
   140002420:	f6 42 04 01          	test   BYTE PTR [rdx+0x4],0x1
   140002424:	0f 85 57 ff ff ff    	jne    140002381 <_gnu_exception_handler+0x21>
   14000242a:	eb c1                	jmp    1400023ed <_gnu_exception_handler+0x8d>
   14000242c:	0f 1f 40 00          	nop    DWORD PTR [rax+0x0]
   140002430:	31 c0                	xor    eax,eax
   140002432:	48 83 c4 20          	add    rsp,0x20
   140002436:	5b                   	pop    rbx
   140002437:	c3                   	ret
   140002438:	0f 1f 84 00 00 00 00 	nop    DWORD PTR [rax+rax*1+0x0]
   14000243f:	00 
   140002440:	31 d2                	xor    edx,edx
   140002442:	b9 08 00 00 00       	mov    ecx,0x8
   140002447:	e8 f4 0a 00 00       	call   140002f40 <signal>
   14000244c:	48 83 f8 01          	cmp    rax,0x1
   140002450:	0f 84 89 00 00 00    	je     1400024df <_gnu_exception_handler+0x17f>
   140002456:	48 85 c0             	test   rax,rax
   140002459:	74 a4                	je     1400023ff <_gnu_exception_handler+0x9f>
   14000245b:	b9 08 00 00 00       	mov    ecx,0x8
   140002460:	ff d0                	call   rax
   140002462:	eb 89                	jmp    1400023ed <_gnu_exception_handler+0x8d>
   140002464:	0f 1f 40 00          	nop    DWORD PTR [rax+0x0]
   140002468:	31 d2                	xor    edx,edx
   14000246a:	b9 08 00 00 00       	mov    ecx,0x8
   14000246f:	e8 cc 0a 00 00       	call   140002f40 <signal>
   140002474:	48 83 f8 01          	cmp    rax,0x1
   140002478:	75 dc                	jne    140002456 <_gnu_exception_handler+0xf6>
   14000247a:	ba 01 00 00 00       	mov    edx,0x1
   14000247f:	b9 08 00 00 00       	mov    ecx,0x8
   140002484:	e8 b7 0a 00 00       	call   140002f40 <signal>
   140002489:	e9 5f ff ff ff       	jmp    1400023ed <_gnu_exception_handler+0x8d>
   14000248e:	66 90                	xchg   ax,ax
   140002490:	31 d2                	xor    edx,edx
   140002492:	b9 0b 00 00 00       	mov    ecx,0xb
   140002497:	e8 a4 0a 00 00       	call   140002f40 <signal>
   14000249c:	48 83 f8 01          	cmp    rax,0x1
   1400024a0:	74 29                	je     1400024cb <_gnu_exception_handler+0x16b>
   1400024a2:	48 85 c0             	test   rax,rax
   1400024a5:	0f 84 54 ff ff ff    	je     1400023ff <_gnu_exception_handler+0x9f>
   1400024ab:	b9 0b 00 00 00       	mov    ecx,0xb
   1400024b0:	ff d0                	call   rax
   1400024b2:	e9 36 ff ff ff       	jmp    1400023ed <_gnu_exception_handler+0x8d>
   1400024b7:	ba 01 00 00 00       	mov    edx,0x1
   1400024bc:	b9 04 00 00 00       	mov    ecx,0x4
   1400024c1:	e8 7a 0a 00 00       	call   140002f40 <signal>
   1400024c6:	e9 22 ff ff ff       	jmp    1400023ed <_gnu_exception_handler+0x8d>
   1400024cb:	ba 01 00 00 00       	mov    edx,0x1
   1400024d0:	b9 0b 00 00 00       	mov    ecx,0xb
   1400024d5:	e8 66 0a 00 00       	call   140002f40 <signal>
   1400024da:	e9 0e ff ff ff       	jmp    1400023ed <_gnu_exception_handler+0x8d>
   1400024df:	ba 01 00 00 00       	mov    edx,0x1
   1400024e4:	b9 08 00 00 00       	mov    ecx,0x8
   1400024e9:	e8 52 0a 00 00       	call   140002f40 <signal>
   1400024ee:	e8 cd f8 ff ff       	call   140001dc0 <_fpreset>
   1400024f3:	e9 f5 fe ff ff       	jmp    1400023ed <_gnu_exception_handler+0x8d>
   1400024f8:	90                   	nop
   1400024f9:	90                   	nop
   1400024fa:	90                   	nop
   1400024fb:	90                   	nop
   1400024fc:	90                   	nop
   1400024fd:	90                   	nop
   1400024fe:	90                   	nop
   1400024ff:	90                   	nop

0000000140002500 <__mingwthr_run_key_dtors.part.0>:
   140002500:	41 54                	push   r12
   140002502:	55                   	push   rbp
   140002503:	57                   	push   rdi
   140002504:	56                   	push   rsi
   140002505:	53                   	push   rbx
   140002506:	48 83 ec 20          	sub    rsp,0x20
   14000250a:	4c 8d 25 ef 5b 00 00 	lea    r12,[rip+0x5bef]        # 140008100 <__mingwthr_cs>
   140002511:	4c 89 e1             	mov    rcx,r12
   140002514:	ff 15 96 6d 00 00    	call   QWORD PTR [rip+0x6d96]        # 1400092b0 <__imp_EnterCriticalSection>
   14000251a:	48 8b 1d bf 5b 00 00 	mov    rbx,QWORD PTR [rip+0x5bbf]        # 1400080e0 <key_dtor_list>
   140002521:	48 85 db             	test   rbx,rbx
   140002524:	74 36                	je     14000255c <__mingwthr_run_key_dtors.part.0+0x5c>
   140002526:	48 8b 2d b3 6d 00 00 	mov    rbp,QWORD PTR [rip+0x6db3]        # 1400092e0 <__imp_TlsGetValue>
   14000252d:	48 8b 3d 84 6d 00 00 	mov    rdi,QWORD PTR [rip+0x6d84]        # 1400092b8 <__imp_GetLastError>
   140002534:	0f 1f 40 00          	nop    DWORD PTR [rax+0x0]
   140002538:	8b 0b                	mov    ecx,DWORD PTR [rbx]
   14000253a:	ff d5                	call   rbp
   14000253c:	48 89 c6             	mov    rsi,rax
   14000253f:	ff d7                	call   rdi
   140002541:	85 c0                	test   eax,eax
   140002543:	75 0e                	jne    140002553 <__mingwthr_run_key_dtors.part.0+0x53>
   140002545:	48 85 f6             	test   rsi,rsi
   140002548:	74 09                	je     140002553 <__mingwthr_run_key_dtors.part.0+0x53>
   14000254a:	48 8b 43 08          	mov    rax,QWORD PTR [rbx+0x8]
   14000254e:	48 89 f1             	mov    rcx,rsi
   140002551:	ff d0                	call   rax
   140002553:	48 8b 5b 10          	mov    rbx,QWORD PTR [rbx+0x10]
   140002557:	48 85 db             	test   rbx,rbx
   14000255a:	75 dc                	jne    140002538 <__mingwthr_run_key_dtors.part.0+0x38>
   14000255c:	4c 89 e1             	mov    rcx,r12
   14000255f:	48 83 c4 20          	add    rsp,0x20
   140002563:	5b                   	pop    rbx
   140002564:	5e                   	pop    rsi
   140002565:	5f                   	pop    rdi
   140002566:	5d                   	pop    rbp
   140002567:	41 5c                	pop    r12
   140002569:	48 ff 25 58 6d 00 00 	rex.W jmp QWORD PTR [rip+0x6d58]        # 1400092c8 <__imp_LeaveCriticalSection>

0000000140002570 <___w64_mingwthr_add_key_dtor>:
   140002570:	57                   	push   rdi
   140002571:	56                   	push   rsi
   140002572:	53                   	push   rbx
   140002573:	48 83 ec 20          	sub    rsp,0x20
   140002577:	8b 05 6b 5b 00 00    	mov    eax,DWORD PTR [rip+0x5b6b]        # 1400080e8 <__mingwthr_cs_init>
   14000257d:	85 c0                	test   eax,eax
   14000257f:	89 cf                	mov    edi,ecx
   140002581:	48 89 d6             	mov    rsi,rdx
   140002584:	75 0a                	jne    140002590 <___w64_mingwthr_add_key_dtor+0x20>
   140002586:	31 c0                	xor    eax,eax
   140002588:	48 83 c4 20          	add    rsp,0x20
   14000258c:	5b                   	pop    rbx
   14000258d:	5e                   	pop    rsi
   14000258e:	5f                   	pop    rdi
   14000258f:	c3                   	ret
   140002590:	ba 18 00 00 00       	mov    edx,0x18
   140002595:	b9 01 00 00 00       	mov    ecx,0x1
   14000259a:	e8 d9 09 00 00       	call   140002f78 <calloc>
   14000259f:	48 85 c0             	test   rax,rax
   1400025a2:	48 89 c3             	mov    rbx,rax
   1400025a5:	74 33                	je     1400025da <___w64_mingwthr_add_key_dtor+0x6a>
   1400025a7:	48 89 70 08          	mov    QWORD PTR [rax+0x8],rsi
   1400025ab:	48 8d 35 4e 5b 00 00 	lea    rsi,[rip+0x5b4e]        # 140008100 <__mingwthr_cs>
   1400025b2:	89 38                	mov    DWORD PTR [rax],edi
   1400025b4:	48 89 f1             	mov    rcx,rsi
   1400025b7:	ff 15 f3 6c 00 00    	call   QWORD PTR [rip+0x6cf3]        # 1400092b0 <__imp_EnterCriticalSection>
   1400025bd:	48 8b 05 1c 5b 00 00 	mov    rax,QWORD PTR [rip+0x5b1c]        # 1400080e0 <key_dtor_list>
   1400025c4:	48 89 f1             	mov    rcx,rsi
   1400025c7:	48 89 1d 12 5b 00 00 	mov    QWORD PTR [rip+0x5b12],rbx        # 1400080e0 <key_dtor_list>
   1400025ce:	48 89 43 10          	mov    QWORD PTR [rbx+0x10],rax
   1400025d2:	ff 15 f0 6c 00 00    	call   QWORD PTR [rip+0x6cf0]        # 1400092c8 <__imp_LeaveCriticalSection>
   1400025d8:	eb ac                	jmp    140002586 <___w64_mingwthr_add_key_dtor+0x16>
   1400025da:	83 c8 ff             	or     eax,0xffffffff
   1400025dd:	eb a9                	jmp    140002588 <___w64_mingwthr_add_key_dtor+0x18>
   1400025df:	90                   	nop

00000001400025e0 <___w64_mingwthr_remove_key_dtor>:
   1400025e0:	56                   	push   rsi
   1400025e1:	53                   	push   rbx
   1400025e2:	48 83 ec 28          	sub    rsp,0x28
   1400025e6:	8b 05 fc 5a 00 00    	mov    eax,DWORD PTR [rip+0x5afc]        # 1400080e8 <__mingwthr_cs_init>
   1400025ec:	85 c0                	test   eax,eax
   1400025ee:	89 cb                	mov    ebx,ecx
   1400025f0:	75 0e                	jne    140002600 <___w64_mingwthr_remove_key_dtor+0x20>
   1400025f2:	31 c0                	xor    eax,eax
   1400025f4:	48 83 c4 28          	add    rsp,0x28
   1400025f8:	5b                   	pop    rbx
   1400025f9:	5e                   	pop    rsi
   1400025fa:	c3                   	ret
   1400025fb:	0f 1f 44 00 00       	nop    DWORD PTR [rax+rax*1+0x0]
   140002600:	48 8d 35 f9 5a 00 00 	lea    rsi,[rip+0x5af9]        # 140008100 <__mingwthr_cs>
   140002607:	48 89 f1             	mov    rcx,rsi
   14000260a:	ff 15 a0 6c 00 00    	call   QWORD PTR [rip+0x6ca0]        # 1400092b0 <__imp_EnterCriticalSection>
   140002610:	48 8b 0d c9 5a 00 00 	mov    rcx,QWORD PTR [rip+0x5ac9]        # 1400080e0 <key_dtor_list>
   140002617:	48 85 c9             	test   rcx,rcx
   14000261a:	74 27                	je     140002643 <___w64_mingwthr_remove_key_dtor+0x63>
   14000261c:	31 d2                	xor    edx,edx
   14000261e:	eb 0b                	jmp    14000262b <___w64_mingwthr_remove_key_dtor+0x4b>
   140002620:	48 85 c0             	test   rax,rax
   140002623:	48 89 ca             	mov    rdx,rcx
   140002626:	74 1b                	je     140002643 <___w64_mingwthr_remove_key_dtor+0x63>
   140002628:	48 89 c1             	mov    rcx,rax
   14000262b:	8b 01                	mov    eax,DWORD PTR [rcx]
   14000262d:	39 d8                	cmp    eax,ebx
   14000262f:	48 8b 41 10          	mov    rax,QWORD PTR [rcx+0x10]
   140002633:	75 eb                	jne    140002620 <___w64_mingwthr_remove_key_dtor+0x40>
   140002635:	48 85 d2             	test   rdx,rdx
   140002638:	74 1e                	je     140002658 <___w64_mingwthr_remove_key_dtor+0x78>
   14000263a:	48 89 42 10          	mov    QWORD PTR [rdx+0x10],rax
   14000263e:	e8 3d 09 00 00       	call   140002f80 <free>
   140002643:	48 89 f1             	mov    rcx,rsi
   140002646:	ff 15 7c 6c 00 00    	call   QWORD PTR [rip+0x6c7c]        # 1400092c8 <__imp_LeaveCriticalSection>
   14000264c:	31 c0                	xor    eax,eax
   14000264e:	48 83 c4 28          	add    rsp,0x28
   140002652:	5b                   	pop    rbx
   140002653:	5e                   	pop    rsi
   140002654:	c3                   	ret
   140002655:	0f 1f 00             	nop    DWORD PTR [rax]
   140002658:	48 89 05 81 5a 00 00 	mov    QWORD PTR [rip+0x5a81],rax        # 1400080e0 <key_dtor_list>
   14000265f:	eb dd                	jmp    14000263e <___w64_mingwthr_remove_key_dtor+0x5e>
   140002661:	66 66 2e 0f 1f 84 00 	data16 cs nop WORD PTR [rax+rax*1+0x0]
   140002668:	00 00 00 00 
   14000266c:	0f 1f 40 00          	nop    DWORD PTR [rax+0x0]

0000000140002670 <__mingw_TLScallback>:
   140002670:	53                   	push   rbx
   140002671:	48 83 ec 20          	sub    rsp,0x20
   140002675:	83 fa 02             	cmp    edx,0x2
   140002678:	0f 84 b2 00 00 00    	je     140002730 <__mingw_TLScallback+0xc0>
   14000267e:	77 30                	ja     1400026b0 <__mingw_TLScallback+0x40>
   140002680:	85 d2                	test   edx,edx
   140002682:	74 4c                	je     1400026d0 <__mingw_TLScallback+0x60>
   140002684:	8b 05 5e 5a 00 00    	mov    eax,DWORD PTR [rip+0x5a5e]        # 1400080e8 <__mingwthr_cs_init>
   14000268a:	85 c0                	test   eax,eax
   14000268c:	0f 84 be 00 00 00    	je     140002750 <__mingw_TLScallback+0xe0>
   140002692:	c7 05 4c 5a 00 00 01 	mov    DWORD PTR [rip+0x5a4c],0x1        # 1400080e8 <__mingwthr_cs_init>
   140002699:	00 00 00 
   14000269c:	b8 01 00 00 00       	mov    eax,0x1
   1400026a1:	48 83 c4 20          	add    rsp,0x20
   1400026a5:	5b                   	pop    rbx
   1400026a6:	c3                   	ret
   1400026a7:	66 0f 1f 84 00 00 00 	nop    WORD PTR [rax+rax*1+0x0]
   1400026ae:	00 00 
   1400026b0:	83 fa 03             	cmp    edx,0x3
   1400026b3:	75 e7                	jne    14000269c <__mingw_TLScallback+0x2c>
   1400026b5:	8b 05 2d 5a 00 00    	mov    eax,DWORD PTR [rip+0x5a2d]        # 1400080e8 <__mingwthr_cs_init>
   1400026bb:	85 c0                	test   eax,eax
   1400026bd:	74 dd                	je     14000269c <__mingw_TLScallback+0x2c>
   1400026bf:	e8 3c fe ff ff       	call   140002500 <__mingwthr_run_key_dtors.part.0>
   1400026c4:	eb d6                	jmp    14000269c <__mingw_TLScallback+0x2c>
   1400026c6:	66 2e 0f 1f 84 00 00 	cs nop WORD PTR [rax+rax*1+0x0]
   1400026cd:	00 00 00 
   1400026d0:	8b 05 12 5a 00 00    	mov    eax,DWORD PTR [rip+0x5a12]        # 1400080e8 <__mingwthr_cs_init>
   1400026d6:	85 c0                	test   eax,eax
   1400026d8:	75 66                	jne    140002740 <__mingw_TLScallback+0xd0>
   1400026da:	8b 05 08 5a 00 00    	mov    eax,DWORD PTR [rip+0x5a08]        # 1400080e8 <__mingwthr_cs_init>
   1400026e0:	83 f8 01             	cmp    eax,0x1
   1400026e3:	75 b7                	jne    14000269c <__mingw_TLScallback+0x2c>
   1400026e5:	48 8b 1d f4 59 00 00 	mov    rbx,QWORD PTR [rip+0x59f4]        # 1400080e0 <key_dtor_list>
   1400026ec:	48 85 db             	test   rbx,rbx
   1400026ef:	74 18                	je     140002709 <__mingw_TLScallback+0x99>
   1400026f1:	0f 1f 80 00 00 00 00 	nop    DWORD PTR [rax+0x0]
   1400026f8:	48 89 d9             	mov    rcx,rbx
   1400026fb:	48 8b 5b 10          	mov    rbx,QWORD PTR [rbx+0x10]
   1400026ff:	e8 7c 08 00 00       	call   140002f80 <free>
   140002704:	48 85 db             	test   rbx,rbx
   140002707:	75 ef                	jne    1400026f8 <__mingw_TLScallback+0x88>
   140002709:	48 8d 0d f0 59 00 00 	lea    rcx,[rip+0x59f0]        # 140008100 <__mingwthr_cs>
   140002710:	48 c7 05 c5 59 00 00 	mov    QWORD PTR [rip+0x59c5],0x0        # 1400080e0 <key_dtor_list>
   140002717:	00 00 00 00 
   14000271b:	c7 05 c3 59 00 00 00 	mov    DWORD PTR [rip+0x59c3],0x0        # 1400080e8 <__mingwthr_cs_init>
   140002722:	00 00 00 
   140002725:	ff 15 7d 6b 00 00    	call   QWORD PTR [rip+0x6b7d]        # 1400092a8 <__IAT_start__>
   14000272b:	e9 6c ff ff ff       	jmp    14000269c <__mingw_TLScallback+0x2c>
   140002730:	e8 8b f6 ff ff       	call   140001dc0 <_fpreset>
   140002735:	b8 01 00 00 00       	mov    eax,0x1
   14000273a:	48 83 c4 20          	add    rsp,0x20
   14000273e:	5b                   	pop    rbx
   14000273f:	c3                   	ret
   140002740:	e8 bb fd ff ff       	call   140002500 <__mingwthr_run_key_dtors.part.0>
   140002745:	eb 93                	jmp    1400026da <__mingw_TLScallback+0x6a>
   140002747:	66 0f 1f 84 00 00 00 	nop    WORD PTR [rax+rax*1+0x0]
   14000274e:	00 00 
   140002750:	48 8d 0d a9 59 00 00 	lea    rcx,[rip+0x59a9]        # 140008100 <__mingwthr_cs>
   140002757:	ff 15 63 6b 00 00    	call   QWORD PTR [rip+0x6b63]        # 1400092c0 <__imp_InitializeCriticalSection>
   14000275d:	e9 30 ff ff ff       	jmp    140002692 <__mingw_TLScallback+0x22>
   140002762:	90                   	nop
   140002763:	90                   	nop
   140002764:	90                   	nop
   140002765:	90                   	nop
   140002766:	90                   	nop
   140002767:	90                   	nop
   140002768:	90                   	nop
   140002769:	90                   	nop
   14000276a:	90                   	nop
   14000276b:	90                   	nop
   14000276c:	90                   	nop
   14000276d:	90                   	nop
   14000276e:	90                   	nop
   14000276f:	90                   	nop

0000000140002770 <exit>:
   140002770:	48 83 ec 28          	sub    rsp,0x28
   140002774:	48 8b 05 75 2d 00 00 	mov    rax,QWORD PTR [rip+0x2d75]        # 1400054f0 <.refptr.__imp_exit>
   14000277b:	ff 10                	call   QWORD PTR [rax]
   14000277d:	90                   	nop
   14000277e:	66 90                	xchg   ax,ax

0000000140002780 <_exit>:
   140002780:	48 83 ec 28          	sub    rsp,0x28
   140002784:	48 8b 05 45 2d 00 00 	mov    rax,QWORD PTR [rip+0x2d45]        # 1400054d0 <.refptr.__imp__exit>
   14000278b:	ff 10                	call   QWORD PTR [rax]
   14000278d:	90                   	nop
   14000278e:	90                   	nop
   14000278f:	90                   	nop

0000000140002790 <_ValidateImageBase>:
   140002790:	31 c0                	xor    eax,eax
   140002792:	66 81 39 4d 5a       	cmp    WORD PTR [rcx],0x5a4d
   140002797:	75 0f                	jne    1400027a8 <_ValidateImageBase+0x18>
   140002799:	48 63 51 3c          	movsxd rdx,DWORD PTR [rcx+0x3c]
   14000279d:	48 01 d1             	add    rcx,rdx
   1400027a0:	81 39 50 45 00 00    	cmp    DWORD PTR [rcx],0x4550
   1400027a6:	74 08                	je     1400027b0 <_ValidateImageBase+0x20>
   1400027a8:	c3                   	ret
   1400027a9:	0f 1f 80 00 00 00 00 	nop    DWORD PTR [rax+0x0]
   1400027b0:	31 c0                	xor    eax,eax
   1400027b2:	66 81 79 18 0b 02    	cmp    WORD PTR [rcx+0x18],0x20b
   1400027b8:	0f 94 c0             	sete   al
   1400027bb:	c3                   	ret
   1400027bc:	0f 1f 40 00          	nop    DWORD PTR [rax+0x0]

00000001400027c0 <_FindPESection>:
   1400027c0:	48 63 41 3c          	movsxd rax,DWORD PTR [rcx+0x3c]
   1400027c4:	48 01 c1             	add    rcx,rax
   1400027c7:	44 0f b7 41 06       	movzx  r8d,WORD PTR [rcx+0x6]
   1400027cc:	0f b7 41 14          	movzx  eax,WORD PTR [rcx+0x14]
   1400027d0:	66 45 85 c0          	test   r8w,r8w
   1400027d4:	48 8d 44 01 18       	lea    rax,[rcx+rax*1+0x18]
   1400027d9:	74 32                	je     14000280d <_FindPESection+0x4d>
   1400027db:	41 8d 48 ff          	lea    ecx,[r8-0x1]
   1400027df:	48 8d 0c 89          	lea    rcx,[rcx+rcx*4]
   1400027e3:	4c 8d 4c c8 28       	lea    r9,[rax+rcx*8+0x28]
   1400027e8:	0f 1f 84 00 00 00 00 	nop    DWORD PTR [rax+rax*1+0x0]
   1400027ef:	00 
   1400027f0:	44 8b 40 0c          	mov    r8d,DWORD PTR [rax+0xc]
   1400027f4:	4c 39 c2             	cmp    rdx,r8
   1400027f7:	4c 89 c1             	mov    rcx,r8
   1400027fa:	72 08                	jb     140002804 <_FindPESection+0x44>
   1400027fc:	03 48 08             	add    ecx,DWORD PTR [rax+0x8]
   1400027ff:	48 39 ca             	cmp    rdx,rcx
   140002802:	72 0b                	jb     14000280f <_FindPESection+0x4f>
   140002804:	48 83 c0 28          	add    rax,0x28
   140002808:	4c 39 c8             	cmp    rax,r9
   14000280b:	75 e3                	jne    1400027f0 <_FindPESection+0x30>
   14000280d:	31 c0                	xor    eax,eax
   14000280f:	c3                   	ret

0000000140002810 <_FindPESectionByName>:
   140002810:	57                   	push   rdi
   140002811:	56                   	push   rsi
   140002812:	53                   	push   rbx
   140002813:	48 83 ec 20          	sub    rsp,0x20
   140002817:	48 89 ce             	mov    rsi,rcx
   14000281a:	e8 61 06 00 00       	call   140002e80 <strlen>
   14000281f:	48 83 f8 08          	cmp    rax,0x8
   140002823:	77 7b                	ja     1400028a0 <_FindPESectionByName+0x90>
   140002825:	48 8b 15 84 2c 00 00 	mov    rdx,QWORD PTR [rip+0x2c84]        # 1400054b0 <.refptr.__image_base__>
   14000282c:	31 db                	xor    ebx,ebx
   14000282e:	66 81 3a 4d 5a       	cmp    WORD PTR [rdx],0x5a4d
   140002833:	75 59                	jne    14000288e <_FindPESectionByName+0x7e>
   140002835:	48 63 42 3c          	movsxd rax,DWORD PTR [rdx+0x3c]
   140002839:	48 01 d0             	add    rax,rdx
   14000283c:	81 38 50 45 00 00    	cmp    DWORD PTR [rax],0x4550
   140002842:	75 4a                	jne    14000288e <_FindPESectionByName+0x7e>
   140002844:	66 81 78 18 0b 02    	cmp    WORD PTR [rax+0x18],0x20b
   14000284a:	75 42                	jne    14000288e <_FindPESectionByName+0x7e>
   14000284c:	0f b7 50 14          	movzx  edx,WORD PTR [rax+0x14]
   140002850:	48 8d 5c 10 18       	lea    rbx,[rax+rdx*1+0x18]
   140002855:	0f b7 50 06          	movzx  edx,WORD PTR [rax+0x6]
   140002859:	66 85 d2             	test   dx,dx
   14000285c:	74 42                	je     1400028a0 <_FindPESectionByName+0x90>
   14000285e:	8d 42 ff             	lea    eax,[rdx-0x1]
   140002861:	48 8d 04 80          	lea    rax,[rax+rax*4]
   140002865:	48 8d 7c c3 28       	lea    rdi,[rbx+rax*8+0x28]
   14000286a:	eb 0d                	jmp    140002879 <_FindPESectionByName+0x69>
   14000286c:	0f 1f 40 00          	nop    DWORD PTR [rax+0x0]
   140002870:	48 83 c3 28          	add    rbx,0x28
   140002874:	48 39 fb             	cmp    rbx,rdi
   140002877:	74 27                	je     1400028a0 <_FindPESectionByName+0x90>
   140002879:	41 b8 08 00 00 00    	mov    r8d,0x8
   14000287f:	48 89 f2             	mov    rdx,rsi
   140002882:	48 89 d9             	mov    rcx,rbx
   140002885:	e8 fe 05 00 00       	call   140002e88 <strncmp>
   14000288a:	85 c0                	test   eax,eax
   14000288c:	75 e2                	jne    140002870 <_FindPESectionByName+0x60>
   14000288e:	48 89 d8             	mov    rax,rbx
   140002891:	48 83 c4 20          	add    rsp,0x20
   140002895:	5b                   	pop    rbx
   140002896:	5e                   	pop    rsi
   140002897:	5f                   	pop    rdi
   140002898:	c3                   	ret
   140002899:	0f 1f 80 00 00 00 00 	nop    DWORD PTR [rax+0x0]
   1400028a0:	31 db                	xor    ebx,ebx
   1400028a2:	48 89 d8             	mov    rax,rbx
   1400028a5:	48 83 c4 20          	add    rsp,0x20
   1400028a9:	5b                   	pop    rbx
   1400028aa:	5e                   	pop    rsi
   1400028ab:	5f                   	pop    rdi
   1400028ac:	c3                   	ret
   1400028ad:	0f 1f 00             	nop    DWORD PTR [rax]

00000001400028b0 <__mingw_GetSectionForAddress>:
   1400028b0:	48 8b 15 f9 2b 00 00 	mov    rdx,QWORD PTR [rip+0x2bf9]        # 1400054b0 <.refptr.__image_base__>
   1400028b7:	31 c0                	xor    eax,eax
   1400028b9:	66 81 3a 4d 5a       	cmp    WORD PTR [rdx],0x5a4d
   1400028be:	75 10                	jne    1400028d0 <__mingw_GetSectionForAddress+0x20>
   1400028c0:	4c 63 42 3c          	movsxd r8,DWORD PTR [rdx+0x3c]
   1400028c4:	49 01 d0             	add    r8,rdx
   1400028c7:	41 81 38 50 45 00 00 	cmp    DWORD PTR [r8],0x4550
   1400028ce:	74 08                	je     1400028d8 <__mingw_GetSectionForAddress+0x28>
   1400028d0:	c3                   	ret
   1400028d1:	0f 1f 80 00 00 00 00 	nop    DWORD PTR [rax+0x0]
   1400028d8:	66 41 81 78 18 0b 02 	cmp    WORD PTR [r8+0x18],0x20b
   1400028df:	75 ef                	jne    1400028d0 <__mingw_GetSectionForAddress+0x20>
   1400028e1:	41 0f b7 40 14       	movzx  eax,WORD PTR [r8+0x14]
   1400028e6:	48 29 d1             	sub    rcx,rdx
   1400028e9:	49 8d 44 00 18       	lea    rax,[r8+rax*1+0x18]
   1400028ee:	45 0f b7 40 06       	movzx  r8d,WORD PTR [r8+0x6]
   1400028f3:	66 45 85 c0          	test   r8w,r8w
   1400028f7:	74 34                	je     14000292d <__mingw_GetSectionForAddress+0x7d>
   1400028f9:	41 8d 50 ff          	lea    edx,[r8-0x1]
   1400028fd:	48 8d 14 92          	lea    rdx,[rdx+rdx*4]
   140002901:	4c 8d 4c d0 28       	lea    r9,[rax+rdx*8+0x28]
   140002906:	66 2e 0f 1f 84 00 00 	cs nop WORD PTR [rax+rax*1+0x0]
   14000290d:	00 00 00 
   140002910:	44 8b 40 0c          	mov    r8d,DWORD PTR [rax+0xc]
   140002914:	4c 39 c1             	cmp    rcx,r8
   140002917:	4c 89 c2             	mov    rdx,r8
   14000291a:	72 08                	jb     140002924 <__mingw_GetSectionForAddress+0x74>
   14000291c:	03 50 08             	add    edx,DWORD PTR [rax+0x8]
   14000291f:	48 39 d1             	cmp    rcx,rdx
   140002922:	72 ac                	jb     1400028d0 <__mingw_GetSectionForAddress+0x20>
   140002924:	48 83 c0 28          	add    rax,0x28
   140002928:	4c 39 c8             	cmp    rax,r9
   14000292b:	75 e3                	jne    140002910 <__mingw_GetSectionForAddress+0x60>
   14000292d:	31 c0                	xor    eax,eax
   14000292f:	c3                   	ret

0000000140002930 <__mingw_GetSectionCount>:
   140002930:	48 8b 05 79 2b 00 00 	mov    rax,QWORD PTR [rip+0x2b79]        # 1400054b0 <.refptr.__image_base__>
   140002937:	31 c9                	xor    ecx,ecx
   140002939:	66 81 38 4d 5a       	cmp    WORD PTR [rax],0x5a4d
   14000293e:	75 0f                	jne    14000294f <__mingw_GetSectionCount+0x1f>
   140002940:	48 63 50 3c          	movsxd rdx,DWORD PTR [rax+0x3c]
   140002944:	48 01 d0             	add    rax,rdx
   140002947:	81 38 50 45 00 00    	cmp    DWORD PTR [rax],0x4550
   14000294d:	74 09                	je     140002958 <__mingw_GetSectionCount+0x28>
   14000294f:	89 c8                	mov    eax,ecx
   140002951:	c3                   	ret
   140002952:	66 0f 1f 44 00 00    	nop    WORD PTR [rax+rax*1+0x0]
   140002958:	66 81 78 18 0b 02    	cmp    WORD PTR [rax+0x18],0x20b
   14000295e:	75 ef                	jne    14000294f <__mingw_GetSectionCount+0x1f>
   140002960:	0f b7 48 06          	movzx  ecx,WORD PTR [rax+0x6]
   140002964:	89 c8                	mov    eax,ecx
   140002966:	c3                   	ret
   140002967:	66 0f 1f 84 00 00 00 	nop    WORD PTR [rax+rax*1+0x0]
   14000296e:	00 00 

0000000140002970 <_FindPESectionExec>:
   140002970:	4c 8b 05 39 2b 00 00 	mov    r8,QWORD PTR [rip+0x2b39]        # 1400054b0 <.refptr.__image_base__>
   140002977:	31 c0                	xor    eax,eax
   140002979:	66 41 81 38 4d 5a    	cmp    WORD PTR [r8],0x5a4d
   14000297f:	75 0f                	jne    140002990 <_FindPESectionExec+0x20>
   140002981:	49 63 50 3c          	movsxd rdx,DWORD PTR [r8+0x3c]
   140002985:	4c 01 c2             	add    rdx,r8
   140002988:	81 3a 50 45 00 00    	cmp    DWORD PTR [rdx],0x4550
   14000298e:	74 08                	je     140002998 <_FindPESectionExec+0x28>
   140002990:	c3                   	ret
   140002991:	0f 1f 80 00 00 00 00 	nop    DWORD PTR [rax+0x0]
   140002998:	66 81 7a 18 0b 02    	cmp    WORD PTR [rdx+0x18],0x20b
   14000299e:	75 f0                	jne    140002990 <_FindPESectionExec+0x20>
   1400029a0:	44 0f b7 42 06       	movzx  r8d,WORD PTR [rdx+0x6]
   1400029a5:	0f b7 42 14          	movzx  eax,WORD PTR [rdx+0x14]
   1400029a9:	66 45 85 c0          	test   r8w,r8w
   1400029ad:	48 8d 44 02 18       	lea    rax,[rdx+rax*1+0x18]
   1400029b2:	74 2c                	je     1400029e0 <_FindPESectionExec+0x70>
   1400029b4:	41 8d 50 ff          	lea    edx,[r8-0x1]
   1400029b8:	48 8d 14 92          	lea    rdx,[rdx+rdx*4]
   1400029bc:	48 8d 54 d0 28       	lea    rdx,[rax+rdx*8+0x28]
   1400029c1:	0f 1f 80 00 00 00 00 	nop    DWORD PTR [rax+0x0]
   1400029c8:	f6 40 27 20          	test   BYTE PTR [rax+0x27],0x20
   1400029cc:	74 09                	je     1400029d7 <_FindPESectionExec+0x67>
   1400029ce:	48 85 c9             	test   rcx,rcx
   1400029d1:	74 bd                	je     140002990 <_FindPESectionExec+0x20>
   1400029d3:	48 83 e9 01          	sub    rcx,0x1
   1400029d7:	48 83 c0 28          	add    rax,0x28
   1400029db:	48 39 d0             	cmp    rax,rdx
   1400029de:	75 e8                	jne    1400029c8 <_FindPESectionExec+0x58>
   1400029e0:	31 c0                	xor    eax,eax
   1400029e2:	c3                   	ret
   1400029e3:	66 66 2e 0f 1f 84 00 	data16 cs nop WORD PTR [rax+rax*1+0x0]
   1400029ea:	00 00 00 00 
   1400029ee:	66 90                	xchg   ax,ax

00000001400029f0 <_GetPEImageBase>:
   1400029f0:	48 8b 05 b9 2a 00 00 	mov    rax,QWORD PTR [rip+0x2ab9]        # 1400054b0 <.refptr.__image_base__>
   1400029f7:	31 d2                	xor    edx,edx
   1400029f9:	66 81 38 4d 5a       	cmp    WORD PTR [rax],0x5a4d
   1400029fe:	75 0f                	jne    140002a0f <_GetPEImageBase+0x1f>
   140002a00:	48 63 48 3c          	movsxd rcx,DWORD PTR [rax+0x3c]
   140002a04:	48 01 c1             	add    rcx,rax
   140002a07:	81 39 50 45 00 00    	cmp    DWORD PTR [rcx],0x4550
   140002a0d:	74 09                	je     140002a18 <_GetPEImageBase+0x28>
   140002a0f:	48 89 d0             	mov    rax,rdx
   140002a12:	c3                   	ret
   140002a13:	0f 1f 44 00 00       	nop    DWORD PTR [rax+rax*1+0x0]
   140002a18:	66 81 79 18 0b 02    	cmp    WORD PTR [rcx+0x18],0x20b
   140002a1e:	48 0f 44 d0          	cmove  rdx,rax
   140002a22:	48 89 d0             	mov    rax,rdx
   140002a25:	c3                   	ret
   140002a26:	66 2e 0f 1f 84 00 00 	cs nop WORD PTR [rax+rax*1+0x0]
   140002a2d:	00 00 00 

0000000140002a30 <_IsNonwritableInCurrentImage>:
   140002a30:	48 8b 15 79 2a 00 00 	mov    rdx,QWORD PTR [rip+0x2a79]        # 1400054b0 <.refptr.__image_base__>
   140002a37:	31 c0                	xor    eax,eax
   140002a39:	66 81 3a 4d 5a       	cmp    WORD PTR [rdx],0x5a4d
   140002a3e:	75 10                	jne    140002a50 <_IsNonwritableInCurrentImage+0x20>
   140002a40:	4c 63 42 3c          	movsxd r8,DWORD PTR [rdx+0x3c]
   140002a44:	49 01 d0             	add    r8,rdx
   140002a47:	41 81 38 50 45 00 00 	cmp    DWORD PTR [r8],0x4550
   140002a4e:	74 08                	je     140002a58 <_IsNonwritableInCurrentImage+0x28>
   140002a50:	c3                   	ret
   140002a51:	0f 1f 80 00 00 00 00 	nop    DWORD PTR [rax+0x0]
   140002a58:	66 41 81 78 18 0b 02 	cmp    WORD PTR [r8+0x18],0x20b
   140002a5f:	75 ef                	jne    140002a50 <_IsNonwritableInCurrentImage+0x20>
   140002a61:	45 0f b7 48 06       	movzx  r9d,WORD PTR [r8+0x6]
   140002a66:	48 29 d1             	sub    rcx,rdx
   140002a69:	41 0f b7 50 14       	movzx  edx,WORD PTR [r8+0x14]
   140002a6e:	66 45 85 c9          	test   r9w,r9w
   140002a72:	49 8d 54 10 18       	lea    rdx,[r8+rdx*1+0x18]
   140002a77:	74 d7                	je     140002a50 <_IsNonwritableInCurrentImage+0x20>
   140002a79:	41 8d 41 ff          	lea    eax,[r9-0x1]
   140002a7d:	48 8d 04 80          	lea    rax,[rax+rax*4]
   140002a81:	4c 8d 4c c2 28       	lea    r9,[rdx+rax*8+0x28]
   140002a86:	66 2e 0f 1f 84 00 00 	cs nop WORD PTR [rax+rax*1+0x0]
   140002a8d:	00 00 00 
   140002a90:	44 8b 42 0c          	mov    r8d,DWORD PTR [rdx+0xc]
   140002a94:	4c 39 c1             	cmp    rcx,r8
   140002a97:	4c 89 c0             	mov    rax,r8
   140002a9a:	72 08                	jb     140002aa4 <_IsNonwritableInCurrentImage+0x74>
   140002a9c:	03 42 08             	add    eax,DWORD PTR [rdx+0x8]
   140002a9f:	48 39 c1             	cmp    rcx,rax
   140002aa2:	72 0c                	jb     140002ab0 <_IsNonwritableInCurrentImage+0x80>
   140002aa4:	48 83 c2 28          	add    rdx,0x28
   140002aa8:	49 39 d1             	cmp    r9,rdx
   140002aab:	75 e3                	jne    140002a90 <_IsNonwritableInCurrentImage+0x60>
   140002aad:	31 c0                	xor    eax,eax
   140002aaf:	c3                   	ret
   140002ab0:	8b 42 24             	mov    eax,DWORD PTR [rdx+0x24]
   140002ab3:	f7 d0                	not    eax
   140002ab5:	c1 e8 1f             	shr    eax,0x1f
   140002ab8:	c3                   	ret
   140002ab9:	0f 1f 80 00 00 00 00 	nop    DWORD PTR [rax+0x0]

0000000140002ac0 <__mingw_enum_import_library_names>:
   140002ac0:	4c 8b 1d e9 29 00 00 	mov    r11,QWORD PTR [rip+0x29e9]        # 1400054b0 <.refptr.__image_base__>
   140002ac7:	45 31 c9             	xor    r9d,r9d
   140002aca:	66 41 81 3b 4d 5a    	cmp    WORD PTR [r11],0x5a4d
   140002ad0:	75 10                	jne    140002ae2 <__mingw_enum_import_library_names+0x22>
   140002ad2:	4d 63 43 3c          	movsxd r8,DWORD PTR [r11+0x3c]
   140002ad6:	4d 01 d8             	add    r8,r11
   140002ad9:	41 81 38 50 45 00 00 	cmp    DWORD PTR [r8],0x4550
   140002ae0:	74 0e                	je     140002af0 <__mingw_enum_import_library_names+0x30>
   140002ae2:	4c 89 c8             	mov    rax,r9
   140002ae5:	c3                   	ret
   140002ae6:	66 2e 0f 1f 84 00 00 	cs nop WORD PTR [rax+rax*1+0x0]
   140002aed:	00 00 00 
   140002af0:	66 41 81 78 18 0b 02 	cmp    WORD PTR [r8+0x18],0x20b
   140002af7:	75 e9                	jne    140002ae2 <__mingw_enum_import_library_names+0x22>
   140002af9:	41 8b 80 90 00 00 00 	mov    eax,DWORD PTR [r8+0x90]
   140002b00:	85 c0                	test   eax,eax
   140002b02:	74 de                	je     140002ae2 <__mingw_enum_import_library_names+0x22>
   140002b04:	45 0f b7 50 06       	movzx  r10d,WORD PTR [r8+0x6]
   140002b09:	41 0f b7 50 14       	movzx  edx,WORD PTR [r8+0x14]
   140002b0e:	66 45 85 d2          	test   r10w,r10w
   140002b12:	49 8d 54 10 18       	lea    rdx,[r8+rdx*1+0x18]
   140002b17:	74 c9                	je     140002ae2 <__mingw_enum_import_library_names+0x22>
   140002b19:	45 8d 42 ff          	lea    r8d,[r10-0x1]
   140002b1d:	4f 8d 04 80          	lea    r8,[r8+r8*4]
   140002b21:	4e 8d 54 c2 28       	lea    r10,[rdx+r8*8+0x28]
   140002b26:	66 2e 0f 1f 84 00 00 	cs nop WORD PTR [rax+rax*1+0x0]
   140002b2d:	00 00 00 
   140002b30:	44 8b 4a 0c          	mov    r9d,DWORD PTR [rdx+0xc]
   140002b34:	4c 39 c8             	cmp    rax,r9
   140002b37:	4d 89 c8             	mov    r8,r9
   140002b3a:	72 09                	jb     140002b45 <__mingw_enum_import_library_names+0x85>
   140002b3c:	44 03 42 08          	add    r8d,DWORD PTR [rdx+0x8]
   140002b40:	4c 39 c0             	cmp    rax,r8
   140002b43:	72 13                	jb     140002b58 <__mingw_enum_import_library_names+0x98>
   140002b45:	48 83 c2 28          	add    rdx,0x28
   140002b49:	4c 39 d2             	cmp    rdx,r10
   140002b4c:	75 e2                	jne    140002b30 <__mingw_enum_import_library_names+0x70>
   140002b4e:	45 31 c9             	xor    r9d,r9d
   140002b51:	4c 89 c8             	mov    rax,r9
   140002b54:	c3                   	ret
   140002b55:	0f 1f 00             	nop    DWORD PTR [rax]
   140002b58:	4c 01 d8             	add    rax,r11
   140002b5b:	eb 0a                	jmp    140002b67 <__mingw_enum_import_library_names+0xa7>
   140002b5d:	0f 1f 00             	nop    DWORD PTR [rax]
   140002b60:	83 e9 01             	sub    ecx,0x1
   140002b63:	48 83 c0 14          	add    rax,0x14
   140002b67:	44 8b 40 04          	mov    r8d,DWORD PTR [rax+0x4]
   140002b6b:	45 85 c0             	test   r8d,r8d
   140002b6e:	75 07                	jne    140002b77 <__mingw_enum_import_library_names+0xb7>
   140002b70:	8b 50 0c             	mov    edx,DWORD PTR [rax+0xc]
   140002b73:	85 d2                	test   edx,edx
   140002b75:	74 d7                	je     140002b4e <__mingw_enum_import_library_names+0x8e>
   140002b77:	85 c9                	test   ecx,ecx
   140002b79:	7f e5                	jg     140002b60 <__mingw_enum_import_library_names+0xa0>
   140002b7b:	44 8b 48 0c          	mov    r9d,DWORD PTR [rax+0xc]
   140002b7f:	4d 01 d9             	add    r9,r11
   140002b82:	4c 89 c8             	mov    rax,r9
   140002b85:	c3                   	ret
   140002b86:	90                   	nop
   140002b87:	90                   	nop
   140002b88:	90                   	nop
   140002b89:	90                   	nop
   140002b8a:	90                   	nop
   140002b8b:	90                   	nop
   140002b8c:	90                   	nop
   140002b8d:	90                   	nop
   140002b8e:	90                   	nop
   140002b8f:	90                   	nop

0000000140002b90 <___chkstk_ms>:
   140002b90:	51                   	push   rcx
   140002b91:	50                   	push   rax
   140002b92:	48 3d 00 10 00 00    	cmp    rax,0x1000
   140002b98:	48 8d 4c 24 18       	lea    rcx,[rsp+0x18]
   140002b9d:	72 19                	jb     140002bb8 <___chkstk_ms+0x28>
   140002b9f:	48 81 e9 00 10 00 00 	sub    rcx,0x1000
   140002ba6:	48 83 09 00          	or     QWORD PTR [rcx],0x0
   140002baa:	48 2d 00 10 00 00    	sub    rax,0x1000
   140002bb0:	48 3d 00 10 00 00    	cmp    rax,0x1000
   140002bb6:	77 e7                	ja     140002b9f <___chkstk_ms+0xf>
   140002bb8:	48 29 c1             	sub    rcx,rax
   140002bbb:	48 83 09 00          	or     QWORD PTR [rcx],0x0
   140002bbf:	58                   	pop    rax
   140002bc0:	59                   	pop    rcx
   140002bc1:	c3                   	ret
   140002bc2:	90                   	nop
   140002bc3:	90                   	nop
   140002bc4:	90                   	nop
   140002bc5:	90                   	nop
   140002bc6:	90                   	nop
   140002bc7:	90                   	nop
   140002bc8:	90                   	nop
   140002bc9:	90                   	nop
   140002bca:	90                   	nop
   140002bcb:	90                   	nop
   140002bcc:	90                   	nop
   140002bcd:	90                   	nop
   140002bce:	90                   	nop
   140002bcf:	90                   	nop

0000000140002bd0 <vfprintf>:
   140002bd0:	48 83 ec 38          	sub    rsp,0x38
   140002bd4:	45 31 c9             	xor    r9d,r9d
   140002bd7:	4c 89 44 24 20       	mov    QWORD PTR [rsp+0x20],r8
   140002bdc:	49 89 d0             	mov    r8,rdx
   140002bdf:	48 89 ca             	mov    rdx,rcx
   140002be2:	31 c9                	xor    ecx,ecx
   140002be4:	e8 bf 02 00 00       	call   140002ea8 <__stdio_common_vfprintf>
   140002be9:	48 83 c4 38          	add    rsp,0x38
   140002bed:	c3                   	ret
   140002bee:	90                   	nop
   140002bef:	90                   	nop

0000000140002bf0 <fprintf>:
   140002bf0:	48 83 ec 48          	sub    rsp,0x48
   140002bf4:	48 8d 44 24 60       	lea    rax,[rsp+0x60]
   140002bf9:	4c 89 44 24 60       	mov    QWORD PTR [rsp+0x60],r8
   140002bfe:	49 89 d0             	mov    r8,rdx
   140002c01:	48 89 ca             	mov    rdx,rcx
   140002c04:	4c 89 4c 24 68       	mov    QWORD PTR [rsp+0x68],r9
   140002c09:	31 c9                	xor    ecx,ecx
   140002c0b:	45 31 c9             	xor    r9d,r9d
   140002c0e:	48 89 44 24 20       	mov    QWORD PTR [rsp+0x20],rax
   140002c13:	48 89 44 24 38       	mov    QWORD PTR [rsp+0x38],rax
   140002c18:	e8 8b 02 00 00       	call   140002ea8 <__stdio_common_vfprintf>
   140002c1d:	48 83 c4 48          	add    rsp,0x48
   140002c21:	c3                   	ret
   140002c22:	90                   	nop
   140002c23:	90                   	nop
   140002c24:	90                   	nop
   140002c25:	90                   	nop
   140002c26:	90                   	nop
   140002c27:	90                   	nop
   140002c28:	90                   	nop
   140002c29:	90                   	nop
   140002c2a:	90                   	nop
   140002c2b:	90                   	nop
   140002c2c:	90                   	nop
   140002c2d:	90                   	nop
   140002c2e:	90                   	nop
   140002c2f:	90                   	nop

0000000140002c30 <_get_output_format>:
   140002c30:	31 c0                	xor    eax,eax
   140002c32:	c3                   	ret
   140002c33:	66 66 2e 0f 1f 84 00 	data16 cs nop WORD PTR [rax+rax*1+0x0]
   140002c3a:	00 00 00 00 
   140002c3e:	66 90                	xchg   ax,ax

0000000140002c40 <__getmainargs>:
   140002c40:	41 54                	push   r12
   140002c42:	55                   	push   rbp
   140002c43:	57                   	push   rdi
   140002c44:	56                   	push   rsi
   140002c45:	53                   	push   rbx
   140002c46:	48 83 ec 20          	sub    rsp,0x20
   140002c4a:	4c 8b 64 24 70       	mov    r12,QWORD PTR [rsp+0x70]
   140002c4f:	44 89 cd             	mov    ebp,r9d
   140002c52:	48 89 d6             	mov    rsi,rdx
   140002c55:	4c 89 c3             	mov    rbx,r8
   140002c58:	48 89 cf             	mov    rdi,rcx
   140002c5b:	e8 b0 02 00 00       	call   140002f10 <_initialize_narrow_environment>
   140002c60:	83 fd 01             	cmp    ebp,0x1
   140002c63:	b9 01 00 00 00       	mov    ecx,0x1
   140002c68:	83 d9 ff             	sbb    ecx,0xffffffff
   140002c6b:	e8 80 02 00 00       	call   140002ef0 <_configure_narrow_argv>
   140002c70:	e8 5b 02 00 00       	call   140002ed0 <__p___argc>
   140002c75:	8b 00                	mov    eax,DWORD PTR [rax]
   140002c77:	89 07                	mov    DWORD PTR [rdi],eax
   140002c79:	e8 5a 02 00 00       	call   140002ed8 <__p___argv>
   140002c7e:	48 8b 00             	mov    rax,QWORD PTR [rax]
   140002c81:	48 89 06             	mov    QWORD PTR [rsi],rax
   140002c84:	e8 17 03 00 00       	call   140002fa0 <__p__environ>
   140002c89:	4d 85 e4             	test   r12,r12
   140002c8c:	48 8b 00             	mov    rax,QWORD PTR [rax]
   140002c8f:	48 89 03             	mov    QWORD PTR [rbx],rax
   140002c92:	74 09                	je     140002c9d <__getmainargs+0x5d>
   140002c94:	41 8b 0c 24          	mov    ecx,DWORD PTR [r12]
   140002c98:	e8 d3 02 00 00       	call   140002f70 <_set_new_mode>
   140002c9d:	31 c0                	xor    eax,eax
   140002c9f:	48 83 c4 20          	add    rsp,0x20
   140002ca3:	5b                   	pop    rbx
   140002ca4:	5e                   	pop    rsi
   140002ca5:	5f                   	pop    rdi
   140002ca6:	5d                   	pop    rbp
   140002ca7:	41 5c                	pop    r12
   140002ca9:	c3                   	ret
   140002caa:	66 0f 1f 44 00 00    	nop    WORD PTR [rax+rax*1+0x0]

0000000140002cb0 <__wgetmainargs>:
   140002cb0:	41 54                	push   r12
   140002cb2:	55                   	push   rbp
   140002cb3:	57                   	push   rdi
   140002cb4:	56                   	push   rsi
   140002cb5:	53                   	push   rbx
   140002cb6:	48 83 ec 20          	sub    rsp,0x20
   140002cba:	4c 8b 64 24 70       	mov    r12,QWORD PTR [rsp+0x70]
   140002cbf:	44 89 cd             	mov    ebp,r9d
   140002cc2:	48 89 d6             	mov    rsi,rdx
   140002cc5:	4c 89 c3             	mov    rbx,r8
   140002cc8:	48 89 cf             	mov    rdi,rcx
   140002ccb:	e8 48 02 00 00       	call   140002f18 <_initialize_wide_environment>
   140002cd0:	83 fd 01             	cmp    ebp,0x1
   140002cd3:	b9 01 00 00 00       	mov    ecx,0x1
   140002cd8:	83 d9 ff             	sbb    ecx,0xffffffff
   140002cdb:	e8 18 02 00 00       	call   140002ef8 <_configure_wide_argv>
   140002ce0:	e8 eb 01 00 00       	call   140002ed0 <__p___argc>
   140002ce5:	8b 00                	mov    eax,DWORD PTR [rax]
   140002ce7:	89 07                	mov    DWORD PTR [rdi],eax
   140002ce9:	e8 f2 01 00 00       	call   140002ee0 <__p___wargv>
   140002cee:	48 8b 00             	mov    rax,QWORD PTR [rax]
   140002cf1:	48 89 06             	mov    QWORD PTR [rsi],rax
   140002cf4:	e8 af 02 00 00       	call   140002fa8 <__p__wenviron>
   140002cf9:	4d 85 e4             	test   r12,r12
   140002cfc:	48 8b 00             	mov    rax,QWORD PTR [rax]
   140002cff:	48 89 03             	mov    QWORD PTR [rbx],rax
   140002d02:	74 09                	je     140002d0d <__wgetmainargs+0x5d>
   140002d04:	41 8b 0c 24          	mov    ecx,DWORD PTR [r12]
   140002d08:	e8 63 02 00 00       	call   140002f70 <_set_new_mode>
   140002d0d:	31 c0                	xor    eax,eax
   140002d0f:	48 83 c4 20          	add    rsp,0x20
   140002d13:	5b                   	pop    rbx
   140002d14:	5e                   	pop    rsi
   140002d15:	5f                   	pop    rdi
   140002d16:	5d                   	pop    rbp
   140002d17:	41 5c                	pop    r12
   140002d19:	c3                   	ret
   140002d1a:	66 0f 1f 44 00 00    	nop    WORD PTR [rax+rax*1+0x0]

0000000140002d20 <_onexit>:
   140002d20:	53                   	push   rbx
   140002d21:	48 83 ec 20          	sub    rsp,0x20
   140002d25:	48 89 cb             	mov    rbx,rcx
   140002d28:	e8 db 01 00 00       	call   140002f08 <_crt_atexit>
   140002d2d:	85 c0                	test   eax,eax
   140002d2f:	b8 00 00 00 00       	mov    eax,0x0
   140002d34:	48 0f 44 c3          	cmove  rax,rbx
   140002d38:	48 83 c4 20          	add    rsp,0x20
   140002d3c:	5b                   	pop    rbx
   140002d3d:	c3                   	ret
   140002d3e:	66 90                	xchg   ax,ax

0000000140002d40 <at_quick_exit>:
   140002d40:	48 8b 05 f9 27 00 00 	mov    rax,QWORD PTR [rip+0x27f9]        # 140005540 <.refptr.__mingw_module_is_dll>
   140002d47:	80 38 00             	cmp    BYTE PTR [rax],0x0
   140002d4a:	74 04                	je     140002d50 <at_quick_exit+0x10>
   140002d4c:	31 c0                	xor    eax,eax
   140002d4e:	c3                   	ret
   140002d4f:	90                   	nop
   140002d50:	e9 ab 01 00 00       	jmp    140002f00 <_crt_at_quick_exit>
   140002d55:	66 66 2e 0f 1f 84 00 	data16 cs nop WORD PTR [rax+rax*1+0x0]
   140002d5c:	00 00 00 00 

0000000140002d60 <_amsg_exit>:
   140002d60:	53                   	push   rbx
   140002d61:	48 83 ec 20          	sub    rsp,0x20
   140002d65:	89 cb                	mov    ebx,ecx
   140002d67:	b9 02 00 00 00       	mov    ecx,0x2
   140002d6c:	e8 1f 01 00 00       	call   140002e90 <__acrt_iob_func>
   140002d71:	48 8d 15 b8 26 00 00 	lea    rdx,[rip+0x26b8]        # 140005430 <.rdata>
   140002d78:	41 89 d8             	mov    r8d,ebx
   140002d7b:	48 89 c1             	mov    rcx,rax
   140002d7e:	e8 6d fe ff ff       	call   140002bf0 <fprintf>
   140002d83:	48 8b 05 46 27 00 00 	mov    rax,QWORD PTR [rip+0x2746]        # 1400054d0 <.refptr.__imp__exit>
   140002d8a:	b9 ff 00 00 00       	mov    ecx,0xff
   140002d8f:	ff 10                	call   QWORD PTR [rax]
   140002d91:	90                   	nop
   140002d92:	66 66 2e 0f 1f 84 00 	data16 cs nop WORD PTR [rax+rax*1+0x0]
   140002d99:	00 00 00 00 
   140002d9d:	0f 1f 00             	nop    DWORD PTR [rax]

0000000140002da0 <__ms_fwprintf>:
   140002da0:	48 83 ec 48          	sub    rsp,0x48
   140002da4:	48 8d 44 24 60       	lea    rax,[rsp+0x60]
   140002da9:	4c 89 44 24 60       	mov    QWORD PTR [rsp+0x60],r8
   140002dae:	49 89 d0             	mov    r8,rdx
   140002db1:	48 89 ca             	mov    rdx,rcx
   140002db4:	4c 89 4c 24 68       	mov    QWORD PTR [rsp+0x68],r9
   140002db9:	b9 04 00 00 00       	mov    ecx,0x4
   140002dbe:	45 31 c9             	xor    r9d,r9d
   140002dc1:	48 89 44 24 20       	mov    QWORD PTR [rsp+0x20],rax
   140002dc6:	48 89 44 24 38       	mov    QWORD PTR [rsp+0x38],rax
   140002dcb:	e8 e0 00 00 00       	call   140002eb0 <__stdio_common_vfwprintf>
   140002dd0:	48 83 c4 48          	add    rsp,0x48
   140002dd4:	c3                   	ret
   140002dd5:	66 66 2e 0f 1f 84 00 	data16 cs nop WORD PTR [rax+rax*1+0x0]
   140002ddc:	00 00 00 00 

0000000140002de0 <tzset>:
   140002de0:	48 83 ec 28          	sub    rsp,0x28
   140002de4:	48 8b 05 f5 26 00 00 	mov    rax,QWORD PTR [rip+0x26f5]        # 1400054e0 <.refptr.__imp__tzset>
   140002deb:	ff 10                	call   QWORD PTR [rax]
   140002ded:	e8 7e 00 00 00       	call   140002e70 <__tzname>
   140002df2:	48 89 05 c7 12 00 00 	mov    QWORD PTR [rip+0x12c7],rax        # 1400040c0 <__imp_tzname>
   140002df9:	e8 6a 00 00 00       	call   140002e68 <__timezone>
   140002dfe:	48 89 05 b3 12 00 00 	mov    QWORD PTR [rip+0x12b3],rax        # 1400040b8 <__imp_timezone>
   140002e05:	e8 56 00 00 00       	call   140002e60 <__daylight>
   140002e0a:	48 89 05 9f 12 00 00 	mov    QWORD PTR [rip+0x129f],rax        # 1400040b0 <__imp_daylight>
   140002e11:	48 83 c4 28          	add    rsp,0x28
   140002e15:	c3                   	ret
   140002e16:	66 2e 0f 1f 84 00 00 	cs nop WORD PTR [rax+rax*1+0x0]
   140002e1d:	00 00 00 

0000000140002e20 <_tzset>:
   140002e20:	48 83 ec 28          	sub    rsp,0x28
   140002e24:	48 8b 05 b5 26 00 00 	mov    rax,QWORD PTR [rip+0x26b5]        # 1400054e0 <.refptr.__imp__tzset>
   140002e2b:	ff 10                	call   QWORD PTR [rax]
   140002e2d:	e8 3e 00 00 00       	call   140002e70 <__tzname>
   140002e32:	48 89 05 87 12 00 00 	mov    QWORD PTR [rip+0x1287],rax        # 1400040c0 <__imp_tzname>
   140002e39:	e8 2a 00 00 00       	call   140002e68 <__timezone>
   140002e3e:	48 89 05 73 12 00 00 	mov    QWORD PTR [rip+0x1273],rax        # 1400040b8 <__imp_timezone>
   140002e45:	e8 16 00 00 00       	call   140002e60 <__daylight>
   140002e4a:	48 89 05 5f 12 00 00 	mov    QWORD PTR [rip+0x125f],rax        # 1400040b0 <__imp_daylight>
   140002e51:	48 83 c4 28          	add    rsp,0x28
   140002e55:	c3                   	ret
   140002e56:	90                   	nop
   140002e57:	90                   	nop
   140002e58:	90                   	nop
   140002e59:	90                   	nop
   140002e5a:	90                   	nop
   140002e5b:	90                   	nop
   140002e5c:	90                   	nop
   140002e5d:	90                   	nop
   140002e5e:	90                   	nop
   140002e5f:	90                   	nop

0000000140002e60 <__daylight>:
   140002e60:	ff 25 fa 65 00 00    	jmp    QWORD PTR [rip+0x65fa]        # 140009460 <__imp___daylight>
   140002e66:	90                   	nop
   140002e67:	90                   	nop

0000000140002e68 <__timezone>:
   140002e68:	ff 25 fa 65 00 00    	jmp    QWORD PTR [rip+0x65fa]        # 140009468 <__imp___timezone>
   140002e6e:	90                   	nop
   140002e6f:	90                   	nop

0000000140002e70 <__tzname>:
   140002e70:	ff 25 fa 65 00 00    	jmp    QWORD PTR [rip+0x65fa]        # 140009470 <__imp___tzname>
   140002e76:	90                   	nop
   140002e77:	90                   	nop

0000000140002e78 <.text>:
   140002e78:	0f 1f 84 00 00 00 00 	nop    DWORD PTR [rax+rax*1+0x0]
   140002e7f:	00 

0000000140002e80 <strlen>:
   140002e80:	ff 25 c2 65 00 00    	jmp    QWORD PTR [rip+0x65c2]        # 140009448 <__imp_strlen>
   140002e86:	90                   	nop
   140002e87:	90                   	nop

0000000140002e88 <strncmp>:
   140002e88:	ff 25 c2 65 00 00    	jmp    QWORD PTR [rip+0x65c2]        # 140009450 <__imp_strncmp>
   140002e8e:	90                   	nop
   140002e8f:	90                   	nop

0000000140002e90 <__acrt_iob_func>:
   140002e90:	ff 25 6a 65 00 00    	jmp    QWORD PTR [rip+0x656a]        # 140009400 <__imp___acrt_iob_func>
   140002e96:	90                   	nop
   140002e97:	90                   	nop

0000000140002e98 <__p__commode>:
   140002e98:	ff 25 6a 65 00 00    	jmp    QWORD PTR [rip+0x656a]        # 140009408 <__imp___p__commode>
   140002e9e:	90                   	nop
   140002e9f:	90                   	nop

0000000140002ea0 <__p__fmode>:
   140002ea0:	ff 25 6a 65 00 00    	jmp    QWORD PTR [rip+0x656a]        # 140009410 <__imp___p__fmode>
   140002ea6:	90                   	nop
   140002ea7:	90                   	nop

0000000140002ea8 <__stdio_common_vfprintf>:
   140002ea8:	ff 25 6a 65 00 00    	jmp    QWORD PTR [rip+0x656a]        # 140009418 <__imp___stdio_common_vfprintf>
   140002eae:	90                   	nop
   140002eaf:	90                   	nop

0000000140002eb0 <__stdio_common_vfwprintf>:
   140002eb0:	ff 25 6a 65 00 00    	jmp    QWORD PTR [rip+0x656a]        # 140009420 <__imp___stdio_common_vfwprintf>
   140002eb6:	90                   	nop
   140002eb7:	90                   	nop

0000000140002eb8 <fclose>:
   140002eb8:	ff 25 6a 65 00 00    	jmp    QWORD PTR [rip+0x656a]        # 140009428 <__imp_fclose>
   140002ebe:	90                   	nop
   140002ebf:	90                   	nop

0000000140002ec0 <fopen>:
   140002ec0:	ff 25 6a 65 00 00    	jmp    QWORD PTR [rip+0x656a]        # 140009430 <__imp_fopen>
   140002ec6:	90                   	nop
   140002ec7:	90                   	nop

0000000140002ec8 <fwrite>:
   140002ec8:	ff 25 6a 65 00 00    	jmp    QWORD PTR [rip+0x656a]        # 140009438 <__imp_fwrite>
   140002ece:	90                   	nop
   140002ecf:	90                   	nop

0000000140002ed0 <__p___argc>:
   140002ed0:	ff 25 9a 64 00 00    	jmp    QWORD PTR [rip+0x649a]        # 140009370 <__imp___p___argc>
   140002ed6:	90                   	nop
   140002ed7:	90                   	nop

0000000140002ed8 <__p___argv>:
   140002ed8:	ff 25 9a 64 00 00    	jmp    QWORD PTR [rip+0x649a]        # 140009378 <__imp___p___argv>
   140002ede:	90                   	nop
   140002edf:	90                   	nop

0000000140002ee0 <__p___wargv>:
   140002ee0:	ff 25 9a 64 00 00    	jmp    QWORD PTR [rip+0x649a]        # 140009380 <__imp___p___wargv>
   140002ee6:	90                   	nop
   140002ee7:	90                   	nop

0000000140002ee8 <_cexit>:
   140002ee8:	ff 25 9a 64 00 00    	jmp    QWORD PTR [rip+0x649a]        # 140009388 <__imp__cexit>
   140002eee:	90                   	nop
   140002eef:	90                   	nop

0000000140002ef0 <_configure_narrow_argv>:
   140002ef0:	ff 25 9a 64 00 00    	jmp    QWORD PTR [rip+0x649a]        # 140009390 <__imp__configure_narrow_argv>
   140002ef6:	90                   	nop
   140002ef7:	90                   	nop

0000000140002ef8 <_configure_wide_argv>:
   140002ef8:	ff 25 9a 64 00 00    	jmp    QWORD PTR [rip+0x649a]        # 140009398 <__imp__configure_wide_argv>
   140002efe:	90                   	nop
   140002eff:	90                   	nop

0000000140002f00 <_crt_at_quick_exit>:
   140002f00:	ff 25 9a 64 00 00    	jmp    QWORD PTR [rip+0x649a]        # 1400093a0 <__imp__crt_at_quick_exit>
   140002f06:	90                   	nop
   140002f07:	90                   	nop

0000000140002f08 <_crt_atexit>:
   140002f08:	ff 25 9a 64 00 00    	jmp    QWORD PTR [rip+0x649a]        # 1400093a8 <__imp__crt_atexit>
   140002f0e:	90                   	nop
   140002f0f:	90                   	nop

0000000140002f10 <_initialize_narrow_environment>:
   140002f10:	ff 25 a2 64 00 00    	jmp    QWORD PTR [rip+0x64a2]        # 1400093b8 <__imp__initialize_narrow_environment>
   140002f16:	90                   	nop
   140002f17:	90                   	nop

0000000140002f18 <_initialize_wide_environment>:
   140002f18:	ff 25 a2 64 00 00    	jmp    QWORD PTR [rip+0x64a2]        # 1400093c0 <__imp__initialize_wide_environment>
   140002f1e:	90                   	nop
   140002f1f:	90                   	nop

0000000140002f20 <_initterm>:
   140002f20:	ff 25 a2 64 00 00    	jmp    QWORD PTR [rip+0x64a2]        # 1400093c8 <__imp__initterm>
   140002f26:	90                   	nop
   140002f27:	90                   	nop

0000000140002f28 <__set_app_type>:
   140002f28:	ff 25 a2 64 00 00    	jmp    QWORD PTR [rip+0x64a2]        # 1400093d0 <__imp___set_app_type>
   140002f2e:	90                   	nop
   140002f2f:	90                   	nop

0000000140002f30 <_set_invalid_parameter_handler>:
   140002f30:	ff 25 a2 64 00 00    	jmp    QWORD PTR [rip+0x64a2]        # 1400093d8 <__imp__set_invalid_parameter_handler>
   140002f36:	90                   	nop
   140002f37:	90                   	nop

0000000140002f38 <abort>:
   140002f38:	ff 25 a2 64 00 00    	jmp    QWORD PTR [rip+0x64a2]        # 1400093e0 <__imp_abort>
   140002f3e:	90                   	nop
   140002f3f:	90                   	nop

0000000140002f40 <signal>:
   140002f40:	ff 25 aa 64 00 00    	jmp    QWORD PTR [rip+0x64aa]        # 1400093f0 <__imp_signal>
   140002f46:	90                   	nop
   140002f47:	90                   	nop
   140002f48:	0f 1f 84 00 00 00 00 	nop    DWORD PTR [rax+rax*1+0x0]
   140002f4f:	00 

0000000140002f50 <__C_specific_handler>:
   140002f50:	ff 25 02 64 00 00    	jmp    QWORD PTR [rip+0x6402]        # 140009358 <__imp___C_specific_handler>
   140002f56:	90                   	nop
   140002f57:	90                   	nop

0000000140002f58 <memcpy>:
   140002f58:	ff 25 02 64 00 00    	jmp    QWORD PTR [rip+0x6402]        # 140009360 <__imp_memcpy>
   140002f5e:	90                   	nop
   140002f5f:	90                   	nop

0000000140002f60 <__setusermatherr>:
   140002f60:	ff 25 e2 63 00 00    	jmp    QWORD PTR [rip+0x63e2]        # 140009348 <__imp___setusermatherr>
   140002f66:	90                   	nop
   140002f67:	90                   	nop
   140002f68:	0f 1f 84 00 00 00 00 	nop    DWORD PTR [rax+rax*1+0x0]
   140002f6f:	00 

0000000140002f70 <_set_new_mode>:
   140002f70:	ff 25 a2 63 00 00    	jmp    QWORD PTR [rip+0x63a2]        # 140009318 <__imp__set_new_mode>
   140002f76:	90                   	nop
   140002f77:	90                   	nop

0000000140002f78 <calloc>:
   140002f78:	ff 25 a2 63 00 00    	jmp    QWORD PTR [rip+0x63a2]        # 140009320 <__imp_calloc>
   140002f7e:	90                   	nop
   140002f7f:	90                   	nop

0000000140002f80 <free>:
   140002f80:	ff 25 a2 63 00 00    	jmp    QWORD PTR [rip+0x63a2]        # 140009328 <__imp_free>
   140002f86:	90                   	nop
   140002f87:	90                   	nop

0000000140002f88 <malloc>:
   140002f88:	ff 25 a2 63 00 00    	jmp    QWORD PTR [rip+0x63a2]        # 140009330 <__imp_malloc>
   140002f8e:	90                   	nop
   140002f8f:	90                   	nop

0000000140002f90 <realloc>:
   140002f90:	ff 25 a2 63 00 00    	jmp    QWORD PTR [rip+0x63a2]        # 140009338 <__imp_realloc>
   140002f96:	90                   	nop
   140002f97:	90                   	nop
   140002f98:	0f 1f 84 00 00 00 00 	nop    DWORD PTR [rax+rax*1+0x0]
   140002f9f:	00 

0000000140002fa0 <__p__environ>:
   140002fa0:	ff 25 5a 63 00 00    	jmp    QWORD PTR [rip+0x635a]        # 140009300 <__imp___p__environ>
   140002fa6:	90                   	nop
   140002fa7:	90                   	nop

0000000140002fa8 <__p__wenviron>:
   140002fa8:	ff 25 5a 63 00 00    	jmp    QWORD PTR [rip+0x635a]        # 140009308 <__imp___p__wenviron>
   140002fae:	90                   	nop
   140002faf:	90                   	nop

0000000140002fb0 <VirtualQuery>:
   140002fb0:	ff 25 3a 63 00 00    	jmp    QWORD PTR [rip+0x633a]        # 1400092f0 <__imp_VirtualQuery>
   140002fb6:	90                   	nop
   140002fb7:	90                   	nop

0000000140002fb8 <VirtualProtect>:
   140002fb8:	ff 25 2a 63 00 00    	jmp    QWORD PTR [rip+0x632a]        # 1400092e8 <__imp_VirtualProtect>
   140002fbe:	90                   	nop
   140002fbf:	90                   	nop

0000000140002fc0 <TlsGetValue>:
   140002fc0:	ff 25 1a 63 00 00    	jmp    QWORD PTR [rip+0x631a]        # 1400092e0 <__imp_TlsGetValue>
   140002fc6:	90                   	nop
   140002fc7:	90                   	nop

0000000140002fc8 <Sleep>:
   140002fc8:	ff 25 0a 63 00 00    	jmp    QWORD PTR [rip+0x630a]        # 1400092d8 <__imp_Sleep>
   140002fce:	90                   	nop
   140002fcf:	90                   	nop

0000000140002fd0 <SetUnhandledExceptionFilter>:
   140002fd0:	ff 25 fa 62 00 00    	jmp    QWORD PTR [rip+0x62fa]        # 1400092d0 <__imp_SetUnhandledExceptionFilter>
   140002fd6:	90                   	nop
   140002fd7:	90                   	nop

0000000140002fd8 <LeaveCriticalSection>:
   140002fd8:	ff 25 ea 62 00 00    	jmp    QWORD PTR [rip+0x62ea]        # 1400092c8 <__imp_LeaveCriticalSection>
   140002fde:	90                   	nop
   140002fdf:	90                   	nop

0000000140002fe0 <InitializeCriticalSection>:
   140002fe0:	ff 25 da 62 00 00    	jmp    QWORD PTR [rip+0x62da]        # 1400092c0 <__imp_InitializeCriticalSection>
   140002fe6:	90                   	nop
   140002fe7:	90                   	nop

0000000140002fe8 <GetLastError>:
   140002fe8:	ff 25 ca 62 00 00    	jmp    QWORD PTR [rip+0x62ca]        # 1400092b8 <__imp_GetLastError>
   140002fee:	90                   	nop
   140002fef:	90                   	nop

0000000140002ff0 <EnterCriticalSection>:
   140002ff0:	ff 25 ba 62 00 00    	jmp    QWORD PTR [rip+0x62ba]        # 1400092b0 <__imp_EnterCriticalSection>
   140002ff6:	90                   	nop
   140002ff7:	90                   	nop

0000000140002ff8 <DeleteCriticalSection>:
   140002ff8:	ff 25 aa 62 00 00    	jmp    QWORD PTR [rip+0x62aa]        # 1400092a8 <__IAT_start__>
   140002ffe:	90                   	nop
   140002fff:	90                   	nop

0000000140003000 <register_frame_ctor>:
   140003000:	e9 2b e4 ff ff       	jmp    140001430 <__gcc_register_frame>
   140003005:	90                   	nop
   140003006:	90                   	nop
   140003007:	90                   	nop
   140003008:	90                   	nop
   140003009:	90                   	nop
   14000300a:	90                   	nop
   14000300b:	90                   	nop
   14000300c:	90                   	nop
   14000300d:	90                   	nop
   14000300e:	90                   	nop
   14000300f:	90                   	nop

0000000140003010 <__CTOR_LIST__>:
   140003010:	ff                   	(bad)
   140003011:	ff                   	(bad)
   140003012:	ff                   	(bad)
   140003013:	ff                   	(bad)
   140003014:	ff                   	(bad)
   140003015:	ff                   	(bad)
   140003016:	ff                   	(bad)
   140003017:	ff                 	inc    DWORD PTR [rax]

0000000140003018 <.ctors.65535>:
   140003018:	00 30                	add    BYTE PTR [rax],dh
   14000301a:	00 40 01             	add    BYTE PTR [rax+0x1],al
	...

0000000140003028 <__DTOR_LIST__>:
   140003028:	ff                   	(bad)
   140003029:	ff                   	(bad)
   14000302a:	ff                   	(bad)
   14000302b:	ff                   	(bad)
   14000302c:	ff                   	(bad)
   14000302d:	ff                   	(bad)
   14000302e:	ff                   	(bad)
   14000302f:	ff 00                	inc    DWORD PTR [rax]
   140003031:	00 00                	add    BYTE PTR [rax],al
   140003033:	00 00                	add    BYTE PTR [rax],al
   140003035:	00 00                	add    BYTE PTR [rax],al
	...

Disassembly of section .rdata:

0000000140005000 <.rdata>:
   140005000:	77 72                	ja     140005074 <.rdata+0x54>
   140005002:	61                   	(bad)
   140005003:	70 41                	jo     140005046 <.rdata+0x26>
   140005005:	6c                   	ins    BYTE PTR es:[rdi],dx
   140005006:	6c                   	ins    BYTE PTR es:[rdi],dx
   140005007:	6f                   	outs   dx,DWORD PTR ds:[rsi]
   140005008:	63 4c 6f 67          	movsxd ecx,DWORD PTR [rdi+rbp*2+0x67]
   14000500c:	4f 75 74             	rex.WRXB jne 140005083 <.rdata+0x63>
   14000500f:	46 69 6c 65 2e 74 78 	imul   r13d,DWORD PTR [rbp+r12*2+0x2e],0x747874
   140005016:	74 00 
	...

0000000140005020 <.rdata>:
   140005020:	77 00                	ja     140005022 <.rdata+0x2>
   140005022:	00 00                	add    BYTE PTR [rax],al
   140005024:	00 00                	add    BYTE PTR [rax],al
   140005026:	00 00                	add    BYTE PTR [rax],al
   140005028:	46 55                	rex.RX push rbp
   14000502a:	4e                   	rex.WRX
   14000502b:	43 20 20             	rex.XB and BYTE PTR [r8],spl
   14000502e:	20 20                	and    BYTE PTR [rax],ah
   140005030:	6f                   	outs   dx,DWORD PTR ds:[rsi]
   140005031:	75 74                	jne    1400050a7 <.rdata+0x87>
   140005033:	20 70 6f             	and    BYTE PTR [rax+0x6f],dh
   140005036:	69 6e 74 65 72 20 20 	imul   ebp,DWORD PTR [rsi+0x74],0x20207265
   14000503d:	20 20                	and    BYTE PTR [rax],ah
   14000503f:	20 20                	and    BYTE PTR [rax],ah
   140005041:	69 6e 20 70 6f 69 6e 	imul   ebp,DWORD PTR [rsi+0x20],0x6e696f70
   140005048:	74 65                	je     1400050af <.rdata+0x8f>
   14000504a:	72 20                	jb     14000506c <.rdata+0x4c>
   14000504c:	20 20                	and    BYTE PTR [rax],ah
   14000504e:	20 20                	and    BYTE PTR [rax],ah
   140005050:	20 20                	and    BYTE PTR [rax],ah
   140005052:	61                   	(bad)
   140005053:	6c                   	ins    BYTE PTR es:[rdi],dx
   140005054:	6c                   	ins    BYTE PTR es:[rdi],dx
   140005055:	6f                   	outs   dx,DWORD PTR ds:[rsi]
   140005056:	63 20                	movsxd esp,DWORD PTR [rax]
   140005058:	73 69                	jae    1400050c3 <.rdata+0xa3>
   14000505a:	7a 65                	jp     1400050c1 <.rdata+0xa1>
   14000505c:	20 20                	and    BYTE PTR [rax],ah
   14000505e:	20 20                	and    BYTE PTR [rax],ah
   140005060:	20 20                	and    BYTE PTR [rax],ah
   140005062:	20 66 69             	and    BYTE PTR [rsi+0x69],ah
   140005065:	6c                   	ins    BYTE PTR es:[rdi],dx
   140005066:	6c                   	ins    BYTE PTR es:[rdi],dx
   140005067:	20 6e 75             	and    BYTE PTR [rsi+0x75],ch
   14000506a:	6d                   	ins    DWORD PTR es:[rdi],dx
   14000506b:	20 20                	and    BYTE PTR [rax],ah
   14000506d:	20 20                	and    BYTE PTR [rax],ah
   14000506f:	20 20                	and    BYTE PTR [rax],ah
   140005071:	20 20                	and    BYTE PTR [rax],ah
   140005073:	45                   	rex.RB
   140005074:	4e                   	rex.WRX
   140005075:	44 0a 00             	or     r8b,BYTE PTR [rax]
   140005078:	4d                   	rex.WRB
   140005079:	41                   	rex.B
   14000507a:	4c                   	rex.WR
   14000507b:	4c                   	rex.WR
   14000507c:	4f                   	rex.WRXB
   14000507d:	43 20 20             	rex.XB and BYTE PTR [r8],spl
   140005080:	25 70 20 25 70       	and    eax,0x70252070
   140005085:	20 25 30 31 36 6c    	and    BYTE PTR [rip+0x6c363130],ah        # 1ac3681bb <.debug_line_str+0x6c354042>
   14000508b:	6c                   	ins    BYTE PTR es:[rdi],dx
   14000508c:	58                   	pop    rax
   14000508d:	20 25 30 31 36 6c    	and    BYTE PTR [rip+0x6c363130],ah        # 1ac3681c3 <.debug_line_str+0x6c35404a>
   140005093:	6c                   	ins    BYTE PTR es:[rdi],dx
   140005094:	58                   	pop    rax
   140005095:	0a 00                	or     al,BYTE PTR [rax]
   140005097:	00 43 41             	add    BYTE PTR [rbx+0x41],al
   14000509a:	4c                   	rex.WR
   14000509b:	4c                   	rex.WR
   14000509c:	4f                   	rex.WRXB
   14000509d:	43 20 20             	rex.XB and BYTE PTR [r8],spl
   1400050a0:	25 70 20 25 70       	and    eax,0x70252070
   1400050a5:	20 25 30 31 36 6c    	and    BYTE PTR [rip+0x6c363130],ah        # 1ac3681db <.debug_line_str+0x6c354062>
   1400050ab:	6c                   	ins    BYTE PTR es:[rdi],dx
   1400050ac:	58                   	pop    rax
   1400050ad:	20 25 30 31 36 6c    	and    BYTE PTR [rip+0x6c363130],ah        # 1ac3681e3 <.debug_line_str+0x6c35406a>
   1400050b3:	6c                   	ins    BYTE PTR es:[rdi],dx
   1400050b4:	58                   	pop    rax
   1400050b5:	0a 00                	or     al,BYTE PTR [rax]
   1400050b7:	00 52 45             	add    BYTE PTR [rdx+0x45],dl
   1400050ba:	41                   	rex.B
   1400050bb:	4c                   	rex.WR
   1400050bc:	4c                   	rex.WR
   1400050bd:	4f                   	rex.WRXB
   1400050be:	43 20 25 70 20 25 70 	rex.XB and BYTE PTR [rip+0x70252070],spl        # 1b0257135 <.debug_line_str+0x70242fbc>
   1400050c5:	20 25 30 31 36 6c    	and    BYTE PTR [rip+0x6c363130],ah        # 1ac3681fb <.debug_line_str+0x6c354082>
   1400050cb:	6c                   	ins    BYTE PTR es:[rdi],dx
   1400050cc:	58                   	pop    rax
   1400050cd:	20 25 30 31 36 6c    	and    BYTE PTR [rip+0x6c363130],ah        # 1ac368203 <.debug_line_str+0x6c35408a>
   1400050d3:	6c                   	ins    BYTE PTR es:[rdi],dx
   1400050d4:	58                   	pop    rax
   1400050d5:	0a 00                	or     al,BYTE PTR [rax]
   1400050d7:	00 46 52             	add    BYTE PTR [rsi+0x52],al
   1400050da:	45                   	rex.RB
   1400050db:	45 20 20             	and    BYTE PTR [r8],r12b
   1400050de:	20 20                	and    BYTE PTR [rax],ah
   1400050e0:	25 70 20 25 70       	and    eax,0x70252070
   1400050e5:	20 25 30 31 36 6c    	and    BYTE PTR [rip+0x6c363130],ah        # 1ac36821b <.debug_line_str+0x6c3540a2>
   1400050eb:	6c                   	ins    BYTE PTR es:[rdi],dx
   1400050ec:	58                   	pop    rax
   1400050ed:	20 25 30 31 36 6c    	and    BYTE PTR [rip+0x6c363130],ah        # 1ac368223 <.debug_line_str+0x6c3540aa>
   1400050f3:	6c                   	ins    BYTE PTR es:[rdi],dx
   1400050f4:	58                   	pop    rax
   1400050f5:	0a 00                	or     al,BYTE PTR [rax]
	...

0000000140005100 <__dyn_tls_init_callback>:
   140005100:	20 1c 00             	and    BYTE PTR [rax+rax*1],bl
   140005103:	40 01 00             	rex add DWORD PTR [rax],eax
	...

0000000140005120 <_tls_used>:
   140005120:	00 b0 00 40 01 00    	add    BYTE PTR [rax+0x14000],dh
   140005126:	00 00                	add    BYTE PTR [rax],al
   140005128:	08 b0 00 40 01 00    	or     BYTE PTR [rax+0x14000],dh
   14000512e:	00 00                	add    BYTE PTR [rax],al
   140005130:	7c 80                	jl     1400050b2 <.rdata+0x92>
   140005132:	00 40 01             	add    BYTE PTR [rax+0x1],al
   140005135:	00 00                	add    BYTE PTR [rax],al
   140005137:	00 38                	add    BYTE PTR [rax],bh
   140005139:	a0 00 40 01 00 00 00 	movabs al,ds:0x14000
   140005140:	00 00 
	...

0000000140005160 <.rdata>:
   140005160:	41 72 67             	rex.B jb 1400051ca <.rdata+0x6a>
   140005163:	75 6d                	jne    1400051d2 <.rdata+0x72>
   140005165:	65 6e                	outs   dx,BYTE PTR gs:[rsi]
   140005167:	74 20                	je     140005189 <.rdata+0x29>
   140005169:	64 6f                	outs   dx,DWORD PTR fs:[rsi]
   14000516b:	6d                   	ins    DWORD PTR es:[rdi],dx
   14000516c:	61                   	(bad)
   14000516d:	69 6e 20 65 72 72 6f 	imul   ebp,DWORD PTR [rsi+0x20],0x6f727265
   140005174:	72 20                	jb     140005196 <.rdata+0x36>
   140005176:	28 44 4f 4d          	sub    BYTE PTR [rdi+rcx*2+0x4d],al
   14000517a:	41                   	rex.B
   14000517b:	49                   	rex.WB
   14000517c:	4e 29 00             	rex.WRX sub QWORD PTR [rax],r8
   14000517f:	41 72 67             	rex.B jb 1400051e9 <.rdata+0x89>
   140005182:	75 6d                	jne    1400051f1 <.rdata+0x91>
   140005184:	65 6e                	outs   dx,BYTE PTR gs:[rsi]
   140005186:	74 20                	je     1400051a8 <.rdata+0x48>
   140005188:	73 69                	jae    1400051f3 <.rdata+0x93>
   14000518a:	6e                   	outs   dx,BYTE PTR ds:[rsi]
   14000518b:	67 75 6c             	addr32 jne 1400051fa <.rdata+0x9a>
   14000518e:	61                   	(bad)
   14000518f:	72 69                	jb     1400051fa <.rdata+0x9a>
   140005191:	74 79                	je     14000520c <.rdata+0xac>
   140005193:	20 28                	and    BYTE PTR [rax],ch
   140005195:	53                   	push   rbx
   140005196:	49                   	rex.WB
   140005197:	47                   	rex.RXB
   140005198:	4e 29 00             	rex.WRX sub QWORD PTR [rax],r8
   14000519b:	00 00                	add    BYTE PTR [rax],al
   14000519d:	00 00                	add    BYTE PTR [rax],al
   14000519f:	00 4f 76             	add    BYTE PTR [rdi+0x76],cl
   1400051a2:	65 72 66             	gs jb  14000520b <.rdata+0xab>
   1400051a5:	6c                   	ins    BYTE PTR es:[rdi],dx
   1400051a6:	6f                   	outs   dx,DWORD PTR ds:[rsi]
   1400051a7:	77 20                	ja     1400051c9 <.rdata+0x69>
   1400051a9:	72 61                	jb     14000520c <.rdata+0xac>
   1400051ab:	6e                   	outs   dx,BYTE PTR ds:[rsi]
   1400051ac:	67 65 20 65 72       	and    BYTE PTR gs:[ebp+0x72],ah
   1400051b1:	72 6f                	jb     140005222 <.rdata+0xc2>
   1400051b3:	72 20                	jb     1400051d5 <.rdata+0x75>
   1400051b5:	28 4f 56             	sub    BYTE PTR [rdi+0x56],cl
   1400051b8:	45 52                	rex.RB push r10
   1400051ba:	46                   	rex.RX
   1400051bb:	4c                   	rex.WR
   1400051bc:	4f 57                	rex.WRXB push r15
   1400051be:	29 00                	sub    DWORD PTR [rax],eax
   1400051c0:	50                   	push   rax
   1400051c1:	61                   	(bad)
   1400051c2:	72 74                	jb     140005238 <.rdata+0xd8>
   1400051c4:	69 61 6c 20 6c 6f 73 	imul   esp,DWORD PTR [rcx+0x6c],0x736f6c20
   1400051cb:	73 20                	jae    1400051ed <.rdata+0x8d>
   1400051cd:	6f                   	outs   dx,DWORD PTR ds:[rsi]
   1400051ce:	66 20 73 69          	data16 and BYTE PTR [rbx+0x69],dh
   1400051d2:	67 6e                	outs   dx,BYTE PTR ds:[esi]
   1400051d4:	69 66 69 63 61 6e 63 	imul   esp,DWORD PTR [rsi+0x69],0x636e6163
   1400051db:	65 20 28             	and    BYTE PTR gs:[rax],ch
   1400051de:	50                   	push   rax
   1400051df:	4c                   	rex.WR
   1400051e0:	4f 53                	rex.WRXB push r11
   1400051e2:	53                   	push   rbx
   1400051e3:	29 00                	sub    DWORD PTR [rax],eax
   1400051e5:	00 00                	add    BYTE PTR [rax],al
   1400051e7:	00 54 6f 74          	add    BYTE PTR [rdi+rbp*2+0x74],dl
   1400051eb:	61                   	(bad)
   1400051ec:	6c                   	ins    BYTE PTR es:[rdi],dx
   1400051ed:	20 6c 6f 73          	and    BYTE PTR [rdi+rbp*2+0x73],ch
   1400051f1:	73 20                	jae    140005213 <.rdata+0xb3>
   1400051f3:	6f                   	outs   dx,DWORD PTR ds:[rsi]
   1400051f4:	66 20 73 69          	data16 and BYTE PTR [rbx+0x69],dh
   1400051f8:	67 6e                	outs   dx,BYTE PTR ds:[esi]
   1400051fa:	69 66 69 63 61 6e 63 	imul   esp,DWORD PTR [rsi+0x69],0x636e6163
   140005201:	65 20 28             	and    BYTE PTR gs:[rax],ch
   140005204:	54                   	push   rsp
   140005205:	4c                   	rex.WR
   140005206:	4f 53                	rex.WRXB push r11
   140005208:	53                   	push   rbx
   140005209:	29 00                	sub    DWORD PTR [rax],eax
   14000520b:	00 00                	add    BYTE PTR [rax],al
   14000520d:	00 00                	add    BYTE PTR [rax],al
   14000520f:	00 54 68 65          	add    BYTE PTR [rax+rbp*2+0x65],dl
   140005213:	20 72 65             	and    BYTE PTR [rdx+0x65],dh
   140005216:	73 75                	jae    14000528d <.rdata+0x12d>
   140005218:	6c                   	ins    BYTE PTR es:[rdi],dx
   140005219:	74 20                	je     14000523b <.rdata+0xdb>
   14000521b:	69 73 20 74 6f 6f 20 	imul   esi,DWORD PTR [rbx+0x20],0x206f6f74
   140005222:	73 6d                	jae    140005291 <.rdata+0x131>
   140005224:	61                   	(bad)
   140005225:	6c                   	ins    BYTE PTR es:[rdi],dx
   140005226:	6c                   	ins    BYTE PTR es:[rdi],dx
   140005227:	20 74 6f 20          	and    BYTE PTR [rdi+rbp*2+0x20],dh
   14000522b:	62 65                	(bad)
   14000522d:	20 72 65             	and    BYTE PTR [rdx+0x65],dh
   140005230:	70 72                	jo     1400052a4 <.rdata+0x4>
   140005232:	65 73 65             	gs jae 14000529a <.rdata+0x13a>
   140005235:	6e                   	outs   dx,BYTE PTR ds:[rsi]
   140005236:	74 65                	je     14000529d <.rdata+0x13d>
   140005238:	64 20 28             	and    BYTE PTR fs:[rax],ch
   14000523b:	55                   	push   rbp
   14000523c:	4e                   	rex.WRX
   14000523d:	44                   	rex.R
   14000523e:	45 52                	rex.RB push r10
   140005240:	46                   	rex.RX
   140005241:	4c                   	rex.WR
   140005242:	4f 57                	rex.WRXB push r15
   140005244:	29 00                	sub    DWORD PTR [rax],eax
   140005246:	55                   	push   rbp
   140005247:	6e                   	outs   dx,BYTE PTR ds:[rsi]
   140005248:	6b 6e 6f 77          	imul   ebp,DWORD PTR [rsi+0x6f],0x77
   14000524c:	6e                   	outs   dx,BYTE PTR ds:[rsi]
   14000524d:	20 65 72             	and    BYTE PTR [rbp+0x72],ah
   140005250:	72 6f                	jb     1400052c1 <.rdata+0x21>
   140005252:	72 00                	jb     140005254 <.rdata+0xf4>
   140005254:	00 00                	add    BYTE PTR [rax],al
   140005256:	00 00                	add    BYTE PTR [rax],al
   140005258:	5f                   	pop    rdi
   140005259:	6d                   	ins    DWORD PTR es:[rdi],dx
   14000525a:	61                   	(bad)
   14000525b:	74 68                	je     1400052c5 <.rdata+0x25>
   14000525d:	65 72 72             	gs jb  1400052d2 <.rdata+0x32>
   140005260:	28 29                	sub    BYTE PTR [rcx],ch
   140005262:	3a 20                	cmp    ah,BYTE PTR [rax]
   140005264:	25 73 20 69 6e       	and    eax,0x6e692073
   140005269:	20 25 73 28 25 67    	and    BYTE PTR [rip+0x67252873],ah        # 1a7257ae2 <.debug_line_str+0x67243969>
   14000526f:	2c 20                	sub    al,0x20
   140005271:	25 67 29 20 20       	and    eax,0x20202967
   140005276:	28 72 65             	sub    BYTE PTR [rdx+0x65],dh
   140005279:	74 76                	je     1400052f1 <.rdata+0x51>
   14000527b:	61                   	(bad)
   14000527c:	6c                   	ins    BYTE PTR es:[rdi],dx
   14000527d:	3d 25 67 29 0a       	cmp    eax,0xa296725
   140005282:	00 00                	add    BYTE PTR [rax],al
   140005284:	28 cb                	sub    bl,cl
   140005286:	ff                   	(bad)
   140005287:	ff                   	(bad)
   140005288:	dc ca                	fmul   st(2),st
   14000528a:	ff                   	(bad)
   14000528b:	ff 74 ca ff          	push   QWORD PTR [rdx+rcx*8-0x1]
   14000528f:	ff                   	(bad)
   140005290:	fc                   	cld
   140005291:	ca ff ff             	retf   0xffff
   140005294:	0c cb                	or     al,0xcb
   140005296:	ff                   	(bad)
   140005297:	ff 1c cb             	call   FWORD PTR [rbx+rcx*8]
   14000529a:	ff                   	(bad)
   14000529b:	ff                   	(bad)
   14000529c:	ec                   	in     al,dx
   14000529d:	ca ff ff             	retf   0xffff

00000001400052a0 <.rdata>:
   1400052a0:	4d 69 6e 67 77 2d 77 	imul   r13,QWORD PTR [r14+0x67],0x36772d77
   1400052a7:	36 
   1400052a8:	34 20                	xor    al,0x20
   1400052aa:	72 75                	jb     140005321 <.rdata+0x81>
   1400052ac:	6e                   	outs   dx,BYTE PTR ds:[rsi]
   1400052ad:	74 69                	je     140005318 <.rdata+0x78>
   1400052af:	6d                   	ins    DWORD PTR es:[rdi],dx
   1400052b0:	65 20 66 61          	and    BYTE PTR gs:[rsi+0x61],ah
   1400052b4:	69 6c 75 72 65 3a 0a 	imul   ebp,DWORD PTR [rbp+rsi*2+0x72],0xa3a65
   1400052bb:	00 
   1400052bc:	00 00                	add    BYTE PTR [rax],al
   1400052be:	00 00                	add    BYTE PTR [rax],al
   1400052c0:	41                   	rex.B
   1400052c1:	64 64 72 65          	fs fs jb 14000532a <.rdata+0x8a>
   1400052c5:	73 73                	jae    14000533a <.rdata+0x9a>
   1400052c7:	20 25 70 20 68 61    	and    BYTE PTR [rip+0x61682070],ah        # 1a168733d <.debug_line_str+0x616731c4>
   1400052cd:	73 20                	jae    1400052ef <.rdata+0x4f>
   1400052cf:	6e                   	outs   dx,BYTE PTR ds:[rsi]
   1400052d0:	6f                   	outs   dx,DWORD PTR ds:[rsi]
   1400052d1:	20 69 6d             	and    BYTE PTR [rcx+0x6d],ch
   1400052d4:	61                   	(bad)
   1400052d5:	67 65 2d 73 65 63 74 	addr32 gs sub eax,0x74636573
   1400052dc:	69 6f 6e 00 20 20 56 	imul   ebp,DWORD PTR [rdi+0x6e],0x56202000
   1400052e3:	69 72 74 75 61 6c 51 	imul   esi,DWORD PTR [rdx+0x74],0x516c6175
   1400052ea:	75 65                	jne    140005351 <.rdata+0xb1>
   1400052ec:	72 79                	jb     140005367 <.rdata+0xc7>
   1400052ee:	20 66 61             	and    BYTE PTR [rsi+0x61],ah
   1400052f1:	69 6c 65 64 20 66 6f 	imul   ebp,DWORD PTR [rbp+riz*2+0x64],0x726f6620
   1400052f8:	72 
   1400052f9:	20 25 64 20 62 79    	and    BYTE PTR [rip+0x79622064],ah        # 1b9627363 <.debug_line_str+0x796131ea>
   1400052ff:	74 65                	je     140005366 <.rdata+0xc6>
   140005301:	73 20                	jae    140005323 <.rdata+0x83>
   140005303:	61                   	(bad)
   140005304:	74 20                	je     140005326 <.rdata+0x86>
   140005306:	61                   	(bad)
   140005307:	64 64 72 65          	fs fs jb 140005370 <.rdata+0xd0>
   14000530b:	73 73                	jae    140005380 <.rdata+0xe0>
   14000530d:	20 25 70 00 00 00    	and    BYTE PTR [rip+0x70],ah        # 140005383 <.rdata+0xe3>
   140005313:	00 00                	add    BYTE PTR [rax],al
   140005315:	00 00                	add    BYTE PTR [rax],al
   140005317:	00 20                	add    BYTE PTR [rax],ah
   140005319:	20 56 69             	and    BYTE PTR [rsi+0x69],dl
   14000531c:	72 74                	jb     140005392 <.rdata+0xf2>
   14000531e:	75 61                	jne    140005381 <.rdata+0xe1>
   140005320:	6c                   	ins    BYTE PTR es:[rdi],dx
   140005321:	50                   	push   rax
   140005322:	72 6f                	jb     140005393 <.rdata+0xf3>
   140005324:	74 65                	je     14000538b <.rdata+0xeb>
   140005326:	63 74 20 66          	movsxd esi,DWORD PTR [rax+riz*1+0x66]
   14000532a:	61                   	(bad)
   14000532b:	69 6c 65 64 20 77 69 	imul   ebp,DWORD PTR [rbp+riz*2+0x64],0x74697720
   140005332:	74 
   140005333:	68 20 63 6f 64       	push   0x646f6320
   140005338:	65 20 30             	and    BYTE PTR gs:[rax],dh
   14000533b:	78 25                	js     140005362 <.rdata+0xc2>
   14000533d:	78 00                	js     14000533f <.rdata+0x9f>
   14000533f:	00 20                	add    BYTE PTR [rax],ah
   140005341:	20 55 6e             	and    BYTE PTR [rbp+0x6e],dl
   140005344:	6b 6e 6f 77          	imul   ebp,DWORD PTR [rsi+0x6f],0x77
   140005348:	6e                   	outs   dx,BYTE PTR ds:[rsi]
   140005349:	20 70 73             	and    BYTE PTR [rax+0x73],dh
   14000534c:	65 75 64             	gs jne 1400053b3 <.rdata+0x113>
   14000534f:	6f                   	outs   dx,DWORD PTR ds:[rsi]
   140005350:	20 72 65             	and    BYTE PTR [rdx+0x65],dh
   140005353:	6c                   	ins    BYTE PTR es:[rdi],dx
   140005354:	6f                   	outs   dx,DWORD PTR ds:[rsi]
   140005355:	63 61 74             	movsxd esp,DWORD PTR [rcx+0x74]
   140005358:	69 6f 6e 20 70 72 6f 	imul   ebp,DWORD PTR [rdi+0x6e],0x6f727020
   14000535f:	74 6f                	je     1400053d0 <.rdata+0x130>
   140005361:	63 6f 6c             	movsxd ebp,DWORD PTR [rdi+0x6c]
   140005364:	20 76 65             	and    BYTE PTR [rsi+0x65],dh
   140005367:	72 73                	jb     1400053dc <.rdata+0x13c>
   140005369:	69 6f 6e 20 25 64 2e 	imul   ebp,DWORD PTR [rdi+0x6e],0x2e642520
   140005370:	0a 00                	or     al,BYTE PTR [rax]
   140005372:	00 00                	add    BYTE PTR [rax],al
   140005374:	00 00                	add    BYTE PTR [rax],al
   140005376:	00 00                	add    BYTE PTR [rax],al
   140005378:	20 20                	and    BYTE PTR [rax],ah
   14000537a:	55                   	push   rbp
   14000537b:	6e                   	outs   dx,BYTE PTR ds:[rsi]
   14000537c:	6b 6e 6f 77          	imul   ebp,DWORD PTR [rsi+0x6f],0x77
   140005380:	6e                   	outs   dx,BYTE PTR ds:[rsi]
   140005381:	20 70 73             	and    BYTE PTR [rax+0x73],dh
   140005384:	65 75 64             	gs jne 1400053eb <.rdata+0x14b>
   140005387:	6f                   	outs   dx,DWORD PTR ds:[rsi]
   140005388:	20 72 65             	and    BYTE PTR [rdx+0x65],dh
   14000538b:	6c                   	ins    BYTE PTR es:[rdi],dx
   14000538c:	6f                   	outs   dx,DWORD PTR ds:[rsi]
   14000538d:	63 61 74             	movsxd esp,DWORD PTR [rcx+0x74]
   140005390:	69 6f 6e 20 62 69 74 	imul   ebp,DWORD PTR [rdi+0x6e],0x74696220
   140005397:	20 73 69             	and    BYTE PTR [rbx+0x69],dh
   14000539a:	7a 65                	jp     140005401 <.rdata+0x1>
   14000539c:	20 25 64 2e 0a 00    	and    BYTE PTR [rip+0xa2e64],ah        # 1400a8206 <.debug_line_str+0x9408d>
   1400053a2:	00 00                	add    BYTE PTR [rax],al
   1400053a4:	00 00                	add    BYTE PTR [rax],al
   1400053a6:	00 00                	add    BYTE PTR [rax],al
   1400053a8:	25 64 20 62 69       	and    eax,0x69622064
   1400053ad:	74 20                	je     1400053cf <.rdata+0x12f>
   1400053af:	70 73                	jo     140005424 <.rdata+0x24>
   1400053b1:	65 75 64             	gs jne 140005418 <.rdata+0x18>
   1400053b4:	6f                   	outs   dx,DWORD PTR ds:[rsi]
   1400053b5:	20 72 65             	and    BYTE PTR [rdx+0x65],dh
   1400053b8:	6c                   	ins    BYTE PTR es:[rdi],dx
   1400053b9:	6f                   	outs   dx,DWORD PTR ds:[rsi]
   1400053ba:	63 61 74             	movsxd esp,DWORD PTR [rcx+0x74]
   1400053bd:	69 6f 6e 20 61 74 20 	imul   ebp,DWORD PTR [rdi+0x6e],0x20746120
   1400053c4:	25 70 20 6f 75       	and    eax,0x756f2070
   1400053c9:	74 20                	je     1400053eb <.rdata+0x14b>
   1400053cb:	6f                   	outs   dx,DWORD PTR ds:[rsi]
   1400053cc:	66 20 72 61          	data16 and BYTE PTR [rdx+0x61],dh
   1400053d0:	6e                   	outs   dx,BYTE PTR ds:[rsi]
   1400053d1:	67 65 2c 20          	addr32 gs sub al,0x20
   1400053d5:	74 61                	je     140005438 <.rdata+0x8>
   1400053d7:	72 67                	jb     140005440 <.rdata+0x10>
   1400053d9:	65 74 69             	gs je  140005445 <.rdata+0x15>
   1400053dc:	6e                   	outs   dx,BYTE PTR ds:[rsi]
   1400053dd:	67 20 25 70 2c 20 79 	and    BYTE PTR [eip+0x79202c70],ah        # 1b9208054 <.debug_line_str+0x791f3edb>
   1400053e4:	69 65 6c 64 69 6e 67 	imul   esp,DWORD PTR [rbp+0x6c],0x676e6964
   1400053eb:	20 74 68 65          	and    BYTE PTR [rax+rbp*2+0x65],dh
   1400053ef:	20 76 61             	and    BYTE PTR [rsi+0x61],dh
   1400053f2:	6c                   	ins    BYTE PTR es:[rdi],dx
   1400053f3:	75 65                	jne    14000545a <.refptr._CRT_MT+0xa>
   1400053f5:	20 25 70 2e 0a 00    	and    BYTE PTR [rip+0xa2e70],ah        # 1400a826b <.debug_line_str+0x940f2>
   1400053fb:	00 00                	add    BYTE PTR [rax],al
   1400053fd:	00 00                	add    BYTE PTR [rax],al
	...

0000000140005400 <.rdata>:
   140005400:	40 d0 ff             	sar    dil,1
   140005403:	ff 40 d0             	inc    DWORD PTR [rax-0x30]
   140005406:	ff                   	(bad)
   140005407:	ff 40 d0             	inc    DWORD PTR [rax-0x30]
   14000540a:	ff                   	(bad)
   14000540b:	ff 40 d0             	inc    DWORD PTR [rax-0x30]
   14000540e:	ff                   	(bad)
   14000540f:	ff 40 d0             	inc    DWORD PTR [rax-0x30]
   140005412:	ff                   	(bad)
   140005413:	ff                   	(bad)
   140005414:	ed                   	in     eax,dx
   140005415:	cf                   	iret
   140005416:	ff                   	(bad)
   140005417:	ff 40 d0             	inc    DWORD PTR [rax-0x30]
   14000541a:	ff                   	(bad)
   14000541b:	ff 68 d0             	jmp    FWORD PTR [rax-0x30]
   14000541e:	ff                   	(bad)
   14000541f:	ff                   	(bad)
   140005420:	ed                   	in     eax,dx
   140005421:	cf                   	iret
   140005422:	ff                   	(bad)
   140005423:	ff cb                	dec    ebx
   140005425:	cf                   	iret
   140005426:	ff                   	(bad)
   140005427:	ff 00                	inc    DWORD PTR [rax]
   140005429:	00 00                	add    BYTE PTR [rax],al
   14000542b:	00 00                	add    BYTE PTR [rax],al
   14000542d:	00 00                	add    BYTE PTR [rax],al
	...

0000000140005430 <.rdata>:
   140005430:	72 75                	jb     1400054a7 <.refptr.__dyn_tls_init_callback+0x7>
   140005432:	6e                   	outs   dx,BYTE PTR ds:[rsi]
   140005433:	74 69                	je     14000549e <.refptr.__RUNTIME_PSEUDO_RELOC_LIST__+0xe>
   140005435:	6d                   	ins    DWORD PTR es:[rdi],dx
   140005436:	65 20 65 72          	and    BYTE PTR gs:[rbp+0x72],ah
   14000543a:	72 6f                	jb     1400054ab <.refptr.__dyn_tls_init_callback+0xb>
   14000543c:	72 20                	jb     14000545e <.refptr._CRT_MT+0xe>
   14000543e:	25 64 0a 00 00       	and    eax,0xa64
	...

0000000140005450 <.refptr._CRT_MT>:
   140005450:	30 40 00             	xor    BYTE PTR [rax+0x0],al
   140005453:	40 01 00             	rex add DWORD PTR [rax],eax
	...

0000000140005460 <.refptr._MINGW_INSTALL_DEBUG_MATHERR>:
   140005460:	40                   	rex
   140005461:	40 00 40 01          	rex add BYTE PTR [rax+0x1],al
	...

0000000140005470 <.refptr.__CTOR_LIST__>:
   140005470:	10 30                	adc    BYTE PTR [rax],dh
   140005472:	00 40 01             	add    BYTE PTR [rax+0x1],al
	...

0000000140005480 <.refptr.__RUNTIME_PSEUDO_RELOC_LIST_END__>:
   140005480:	60                   	(bad)
   140005481:	57                   	push   rdi
   140005482:	00 40 01             	add    BYTE PTR [rax+0x1],al
	...

0000000140005490 <.refptr.__RUNTIME_PSEUDO_RELOC_LIST__>:
   140005490:	60                   	(bad)
   140005491:	57                   	push   rdi
   140005492:	00 40 01             	add    BYTE PTR [rax+0x1],al
	...

00000001400054a0 <.refptr.__dyn_tls_init_callback>:
   1400054a0:	00 51 00             	add    BYTE PTR [rcx+0x0],dl
   1400054a3:	40 01 00             	rex add DWORD PTR [rax],eax
	...

00000001400054b0 <.refptr.__image_base__>:
   1400054b0:	00 00                	add    BYTE PTR [rax],al
   1400054b2:	00 40 01             	add    BYTE PTR [rax+0x1],al
	...

00000001400054c0 <.refptr.__imp___initenv>:
   1400054c0:	78 40                	js     140005502 <.refptr.__mingw_app_type+0x2>
   1400054c2:	00 40 01             	add    BYTE PTR [rax+0x1],al
	...

00000001400054d0 <.refptr.__imp__exit>:
   1400054d0:	b0 93                	mov    al,0x93
   1400054d2:	00 40 01             	add    BYTE PTR [rax+0x1],al
	...

00000001400054e0 <.refptr.__imp__tzset>:
   1400054e0:	78 94                	js     140005476 <.refptr.__CTOR_LIST__+0x6>
   1400054e2:	00 40 01             	add    BYTE PTR [rax+0x1],al
	...

00000001400054f0 <.refptr.__imp_exit>:
   1400054f0:	e8 93 00 40 01       	call   141405588 <.debug_line_str+0x13f140f>
	...

0000000140005500 <.refptr.__mingw_app_type>:
   140005500:	90                   	nop
   140005501:	80 00 40             	add    BYTE PTR [rax],0x40
   140005504:	01 00                	add    DWORD PTR [rax],eax
	...

0000000140005510 <.refptr.__mingw_initltsdrot_force>:
   140005510:	78 80                	js     140005492 <.refptr.__RUNTIME_PSEUDO_RELOC_LIST__+0x2>
   140005512:	00 40 01             	add    BYTE PTR [rax+0x1],al
	...

0000000140005520 <.refptr.__mingw_initltsdyn_force>:
   140005520:	74 80                	je     1400054a2 <.refptr.__dyn_tls_init_callback+0x2>
   140005522:	00 40 01             	add    BYTE PTR [rax+0x1],al
	...

0000000140005530 <.refptr.__mingw_initltssuo_force>:
   140005530:	70 80                	jo     1400054b2 <.refptr.__image_base__+0x2>
   140005532:	00 40 01             	add    BYTE PTR [rax+0x1],al
	...

0000000140005540 <.refptr.__mingw_module_is_dll>:
   140005540:	00 80 00 40 01 00    	add    BYTE PTR [rax+0x14000],al
	...

0000000140005550 <.refptr.__mingw_oldexcpt_handler>:
   140005550:	d0 80 00 40 01 00    	rol    BYTE PTR [rax+0x14000],1
	...

0000000140005560 <.refptr.__native_startup_lock>:
   140005560:	50                   	push   rax
   140005561:	80 00 40             	add    BYTE PTR [rax],0x40
   140005564:	01 00                	add    DWORD PTR [rax],eax
	...

0000000140005570 <.refptr.__native_startup_state>:
   140005570:	58                   	pop    rax
   140005571:	80 00 40             	add    BYTE PTR [rax],0x40
   140005574:	01 00                	add    DWORD PTR [rax],eax
	...

0000000140005580 <.refptr.__xc_a>:
   140005580:	00 a0 00 40 01 00    	add    BYTE PTR [rax+0x14000],ah
	...

0000000140005590 <.refptr.__xc_z>:
   140005590:	10 a0 00 40 01 00    	adc    BYTE PTR [rax+0x14000],ah
	...

00000001400055a0 <.refptr.__xi_a>:
   1400055a0:	18 a0 00 40 01 00    	sbb    BYTE PTR [rax+0x14000],ah
	...

00000001400055b0 <.refptr.__xi_z>:
   1400055b0:	28 a0 00 40 01 00    	sub    BYTE PTR [rax+0x14000],ah
	...

00000001400055c0 <.refptr._commode>:
   1400055c0:	80 80 00 40 01 00 00 	add    BYTE PTR [rax+0x14000],0x0
	...

00000001400055d0 <.refptr._dowildcard>:
   1400055d0:	20 40 00             	and    BYTE PTR [rax+0x0],al
   1400055d3:	40 01 00             	rex add DWORD PTR [rax],eax
	...

00000001400055e0 <.refptr._fmode>:
   1400055e0:	c0 80 00 40 01 00 00 	rol    BYTE PTR [rax+0x14000],0x0
	...

00000001400055f0 <.refptr._gnu_exception_handler>:
   1400055f0:	60                   	(bad)
   1400055f1:	23 00                	and    eax,DWORD PTR [rax]
   1400055f3:	40 01 00             	rex add DWORD PTR [rax],eax
	...

0000000140005600 <.refptr._matherr>:
   140005600:	c0 1c 00 40          	rcr    BYTE PTR [rax+rax*1],0x40
   140005604:	01 00                	add    DWORD PTR [rax],eax
	...

0000000140005610 <.refptr._newmode>:
   140005610:	60                   	(bad)
   140005611:	80 00 40             	add    BYTE PTR [rax],0x40
   140005614:	01 00                	add    DWORD PTR [rax],eax
	...

0000000140005620 <.rdata$zzz>:
   140005620:	47                   	rex.RXB
   140005621:	43                   	rex.XB
   140005622:	43 3a 20             	rex.XB cmp spl,BYTE PTR [r8]
   140005625:	28 78 38             	sub    BYTE PTR [rax+0x38],bh
   140005628:	36 5f                	ss pop rdi
   14000562a:	36 34 2d             	ss xor al,0x2d
   14000562d:	77 69                	ja     140005698 <.rdata$zzz+0x28>
   14000562f:	6e                   	outs   dx,BYTE PTR ds:[rsi]
   140005630:	33 32                	xor    esi,DWORD PTR [rdx]
   140005632:	2d 73 65 68 2d       	sub    eax,0x2d686573
   140005637:	72 65                	jb     14000569e <.rdata$zzz+0x2e>
   140005639:	76 31                	jbe    14000566c <.rdata$zzz+0x4c>
   14000563b:	2c 20                	sub    al,0x20
   14000563d:	42 75 69             	rex.X jne 1400056a9 <.rdata$zzz+0x39>
   140005640:	6c                   	ins    BYTE PTR es:[rdi],dx
   140005641:	74 20                	je     140005663 <.rdata$zzz+0x43>
   140005643:	62                   	(bad)
   140005644:	79 20                	jns    140005666 <.rdata$zzz+0x46>
   140005646:	4d 69 6e 47 57 2d 42 	imul   r13,QWORD PTR [r14+0x47],0x75422d57
   14000564d:	75 
   14000564e:	69 6c 64 73 20 70 72 	imul   ebp,DWORD PTR [rsp+riz*2+0x73],0x6f727020
   140005655:	6f 
   140005656:	6a 65                	push   0x65
   140005658:	63 74 29 20          	movsxd esi,DWORD PTR [rcx+rbp*1+0x20]
   14000565c:	31 33                	xor    DWORD PTR [rbx],esi
   14000565e:	2e 32 2e             	cs xor ch,BYTE PTR [rsi]
   140005661:	30 00                	xor    BYTE PTR [rax],al
	...

0000000140005670 <.rdata$zzz>:
   140005670:	47                   	rex.RXB
   140005671:	43                   	rex.XB
   140005672:	43 3a 20             	rex.XB cmp spl,BYTE PTR [r8]
   140005675:	28 78 38             	sub    BYTE PTR [rax+0x38],bh
   140005678:	36 5f                	ss pop rdi
   14000567a:	36 34 2d             	ss xor al,0x2d
   14000567d:	77 69                	ja     1400056e8 <.rdata$zzz+0x28>
   14000567f:	6e                   	outs   dx,BYTE PTR ds:[rsi]
   140005680:	33 32                	xor    esi,DWORD PTR [rdx]
   140005682:	2d 73 65 68 2d       	sub    eax,0x2d686573
   140005687:	72 65                	jb     1400056ee <.rdata$zzz+0x2e>
   140005689:	76 31                	jbe    1400056bc <.rdata$zzz+0x4c>
   14000568b:	2c 20                	sub    al,0x20
   14000568d:	42 75 69             	rex.X jne 1400056f9 <.rdata$zzz+0x39>
   140005690:	6c                   	ins    BYTE PTR es:[rdi],dx
   140005691:	74 20                	je     1400056b3 <.rdata$zzz+0x43>
   140005693:	62                   	(bad)
   140005694:	79 20                	jns    1400056b6 <.rdata$zzz+0x46>
   140005696:	4d 69 6e 47 57 2d 42 	imul   r13,QWORD PTR [r14+0x47],0x75422d57
   14000569d:	75 
   14000569e:	69 6c 64 73 20 70 72 	imul   ebp,DWORD PTR [rsp+riz*2+0x73],0x6f727020
   1400056a5:	6f 
   1400056a6:	6a 65                	push   0x65
   1400056a8:	63 74 29 20          	movsxd esi,DWORD PTR [rcx+rbp*1+0x20]
   1400056ac:	31 33                	xor    DWORD PTR [rbx],esi
   1400056ae:	2e 32 2e             	cs xor ch,BYTE PTR [rsi]
   1400056b1:	30 00                	xor    BYTE PTR [rax],al
	...

00000001400056c0 <.rdata$zzz>:
   1400056c0:	47                   	rex.RXB
   1400056c1:	43                   	rex.XB
   1400056c2:	43 3a 20             	rex.XB cmp spl,BYTE PTR [r8]
   1400056c5:	28 78 38             	sub    BYTE PTR [rax+0x38],bh
   1400056c8:	36 5f                	ss pop rdi
   1400056ca:	36 34 2d             	ss xor al,0x2d
   1400056cd:	77 69                	ja     140005738 <.rdata$zzz+0x28>
   1400056cf:	6e                   	outs   dx,BYTE PTR ds:[rsi]
   1400056d0:	33 32                	xor    esi,DWORD PTR [rdx]
   1400056d2:	2d 73 65 68 2d       	sub    eax,0x2d686573
   1400056d7:	72 65                	jb     14000573e <.rdata$zzz+0x2e>
   1400056d9:	76 31                	jbe    14000570c <.rdata$zzz+0x4c>
   1400056db:	2c 20                	sub    al,0x20
   1400056dd:	42 75 69             	rex.X jne 140005749 <.rdata$zzz+0x39>
   1400056e0:	6c                   	ins    BYTE PTR es:[rdi],dx
   1400056e1:	74 20                	je     140005703 <.rdata$zzz+0x43>
   1400056e3:	62                   	(bad)
   1400056e4:	79 20                	jns    140005706 <.rdata$zzz+0x46>
   1400056e6:	4d 69 6e 47 57 2d 42 	imul   r13,QWORD PTR [r14+0x47],0x75422d57
   1400056ed:	75 
   1400056ee:	69 6c 64 73 20 70 72 	imul   ebp,DWORD PTR [rsp+riz*2+0x73],0x6f727020
   1400056f5:	6f 
   1400056f6:	6a 65                	push   0x65
   1400056f8:	63 74 29 20          	movsxd esi,DWORD PTR [rcx+rbp*1+0x20]
   1400056fc:	31 33                	xor    DWORD PTR [rbx],esi
   1400056fe:	2e 32 2e             	cs xor ch,BYTE PTR [rsi]
   140005701:	30 00                	xor    BYTE PTR [rax],al
	...

0000000140005710 <.rdata$zzz>:
   140005710:	47                   	rex.RXB
   140005711:	43                   	rex.XB
   140005712:	43 3a 20             	rex.XB cmp spl,BYTE PTR [r8]
   140005715:	28 78 38             	sub    BYTE PTR [rax+0x38],bh
   140005718:	36 5f                	ss pop rdi
   14000571a:	36 34 2d             	ss xor al,0x2d
   14000571d:	77 69                	ja     140005788 <__RUNTIME_PSEUDO_RELOC_LIST_END__+0x28>
   14000571f:	6e                   	outs   dx,BYTE PTR ds:[rsi]
   140005720:	33 32                	xor    esi,DWORD PTR [rdx]
   140005722:	2d 73 65 68 2d       	sub    eax,0x2d686573
   140005727:	72 65                	jb     14000578e <__RUNTIME_PSEUDO_RELOC_LIST_END__+0x2e>
   140005729:	76 31                	jbe    14000575c <.rdata$zzz+0x4c>
   14000572b:	2c 20                	sub    al,0x20
   14000572d:	42 75 69             	rex.X jne 140005799 <__RUNTIME_PSEUDO_RELOC_LIST_END__+0x39>
   140005730:	6c                   	ins    BYTE PTR es:[rdi],dx
   140005731:	74 20                	je     140005753 <.rdata$zzz+0x43>
   140005733:	62                   	(bad)
   140005734:	79 20                	jns    140005756 <.rdata$zzz+0x46>
   140005736:	4d 69 6e 47 57 2d 42 	imul   r13,QWORD PTR [r14+0x47],0x75422d57
   14000573d:	75 
   14000573e:	69 6c 64 73 20 70 72 	imul   ebp,DWORD PTR [rsp+riz*2+0x73],0x6f727020
   140005745:	6f 
   140005746:	6a 65                	push   0x65
   140005748:	63 74 29 20          	movsxd esi,DWORD PTR [rcx+rbp*1+0x20]
   14000574c:	31 33                	xor    DWORD PTR [rbx],esi
   14000574e:	2e 32 2e             	cs xor ch,BYTE PTR [rsi]
   140005751:	30 00                	xor    BYTE PTR [rax],al
	...

Disassembly of section .pdata:

0000000140006000 <.pdata>:
   140006000:	00 10                	add    BYTE PTR [rax],dl
   140006002:	00 00                	add    BYTE PTR [rax],al
   140006004:	01 10                	add    DWORD PTR [rax],edx
   140006006:	00 00                	add    BYTE PTR [rax],al
   140006008:	00 70 00             	add    BYTE PTR [rax+0x0],dh
   14000600b:	00 10                	add    BYTE PTR [rax],dl
   14000600d:	10 00                	adc    BYTE PTR [rax],al
   14000600f:	00 2e                	add    BYTE PTR [rsi],ch
   140006011:	11 00                	adc    DWORD PTR [rax],eax
   140006013:	00 04 70             	add    BYTE PTR [rax+rsi*2],al
   140006016:	00 00                	add    BYTE PTR [rax],al
   140006018:	30 11                	xor    BYTE PTR [rcx],dl
   14000601a:	00 00                	add    BYTE PTR [rax],al
   14000601c:	79 11                	jns    14000602f <.pdata+0x2f>
   14000601e:	00 00                	add    BYTE PTR [rax],al
   140006020:	0c 70                	or     al,0x70
   140006022:	00 00                	add    BYTE PTR [rax],al
   140006024:	80 11 00             	adc    BYTE PTR [rcx],0x0
   140006027:	00 d0                	add    al,dl
   140006029:	13 00                	adc    eax,DWORD PTR [rax]
   14000602b:	00 14 70             	add    BYTE PTR [rax+rsi*2],dl
   14000602e:	00 00                	add    BYTE PTR [rax],al
   140006030:	d0 13                	rcl    BYTE PTR [rbx],1
   140006032:	00 00                	add    BYTE PTR [rax],al
   140006034:	ed                   	in     eax,dx
   140006035:	13 00                	adc    eax,DWORD PTR [rax]
   140006037:	00 24 70             	add    BYTE PTR [rax+rsi*2],ah
   14000603a:	00 00                	add    BYTE PTR [rax],al
   14000603c:	f0 13 00             	lock adc eax,DWORD PTR [rax]
   14000603f:	00 0d 14 00 00 44    	add    BYTE PTR [rip+0x44000014],cl        # 184006059 <.debug_line_str+0x43ff1ee0>
   140006045:	70 00                	jo     140006047 <.pdata+0x47>
   140006047:	00 10                	add    BYTE PTR [rax],dl
   140006049:	14 00                	adc    al,0x0
   14000604b:	00 24 14             	add    BYTE PTR [rsp+rdx*1],ah
   14000604e:	00 00                	add    BYTE PTR [rax],al
   140006050:	64 70 00             	fs jo  140006053 <.pdata+0x53>
	...

0000000140006054 <.pdata>:
   140006054:	30 14 00             	xor    BYTE PTR [rax+rax*1],dl
   140006057:	00 3c 14             	add    BYTE PTR [rsp+rdx*1],bh
   14000605a:	00 00                	add    BYTE PTR [rax],al
   14000605c:	6c                   	ins    BYTE PTR es:[rdi],dx
   14000605d:	70 00                	jo     14000605f <.pdata+0xb>
   14000605f:	00 40 14             	add    BYTE PTR [rax+0x14],al
   140006062:	00 00                	add    BYTE PTR [rax],al
   140006064:	41 14 00             	rex.B adc al,0x0
   140006067:	00 70 70             	add    BYTE PTR [rax+0x70],dh
	...

000000014000606c <.pdata>:
   14000606c:	50                   	push   rax
   14000606d:	14 00                	adc    al,0x0
   14000606f:	00 bb 14 00 00 74    	add    BYTE PTR [rbx+0x74000014],bh
   140006075:	70 00                	jo     140006077 <.pdata+0xb>
	...

0000000140006078 <.pdata>:
   140006078:	c0 14 00 00          	rcl    BYTE PTR [rax+rax*1],0x0
   14000607c:	e6 14                	out    0x14,al
   14000607e:	00 00                	add    BYTE PTR [rax],al
   140006080:	80 70 00 00          	xor    BYTE PTR [rax+0x0],0x0
   140006084:	f0 14 00             	lock adc al,0x0
   140006087:	00 40 15             	add    BYTE PTR [rax+0x15],al
   14000608a:	00 00                	add    BYTE PTR [rax],al
   14000608c:	88 70 00             	mov    BYTE PTR [rax+0x0],dh
   14000608f:	00 40 15             	add    BYTE PTR [rax+0x15],al
   140006092:	00 00                	add    BYTE PTR [rax],al
   140006094:	b5 15                	mov    ch,0x15
   140006096:	00 00                	add    BYTE PTR [rax],al
   140006098:	94                   	xchg   esp,eax
   140006099:	70 00                	jo     14000609b <.pdata+0x23>
   14000609b:	00 c0                	add    al,al
   14000609d:	15 00 00 6d 16       	adc    eax,0x166d0000
   1400060a2:	00 00                	add    BYTE PTR [rax],al
   1400060a4:	a0 70 00 00 70 16 00 	movabs al,ds:0xba00001670000070
   1400060ab:	00 ba 
   1400060ad:	16                   	(bad)
   1400060ae:	00 00                	add    BYTE PTR [rax],al
   1400060b0:	ac                   	lods   al,BYTE PTR ds:[rsi]
   1400060b1:	70 00                	jo     1400060b3 <.pdata+0x3b>
   1400060b3:	00 c0                	add    al,al
   1400060b5:	16                   	(bad)
   1400060b6:	00 00                	add    BYTE PTR [rax],al
   1400060b8:	f3 16                	repz (bad)
   1400060ba:	00 00                	add    BYTE PTR [rax],al
   1400060bc:	b8 70 00 00 00       	mov    eax,0x70
   1400060c1:	17                   	(bad)
   1400060c2:	00 00                	add    BYTE PTR [rax],al
   1400060c4:	41 17                	rex.B (bad)
   1400060c6:	00 00                	add    BYTE PTR [rax],al
   1400060c8:	bc 70 00 00 50       	mov    esp,0x50000070
   1400060cd:	17                   	(bad)
   1400060ce:	00 00                	add    BYTE PTR [rax],al
   1400060d0:	a5                   	movs   DWORD PTR es:[rdi],DWORD PTR ds:[rsi]
   1400060d1:	17                   	(bad)
   1400060d2:	00 00                	add    BYTE PTR [rax],al
   1400060d4:	c8 70 00 00          	enter  0x70,0x0
   1400060d8:	b0 17                	mov    al,0x17
   1400060da:	00 00                	add    BYTE PTR [rax],al
   1400060dc:	be 17 00 00 d4       	mov    esi,0xd4000017
   1400060e1:	70 00                	jo     1400060e3 <.pdata+0x6b>
   1400060e3:	00 c0                	add    al,al
   1400060e5:	17                   	(bad)
   1400060e6:	00 00                	add    BYTE PTR [rax],al
   1400060e8:	5d                   	pop    rbp
   1400060e9:	18 00                	sbb    BYTE PTR [rax],al
   1400060eb:	00 d8                	add    al,bl
   1400060ed:	70 00                	jo     1400060ef <.pdata+0x77>
	...

00000001400060f0 <.pdata>:
   1400060f0:	60                   	(bad)
   1400060f1:	18 00                	sbb    BYTE PTR [rax],al
   1400060f3:	00 71 18             	add    BYTE PTR [rcx+0x18],dh
   1400060f6:	00 00                	add    BYTE PTR [rax],al
   1400060f8:	e4 70                	in     al,0x70
   1400060fa:	00 00                	add    BYTE PTR [rax],al
   1400060fc:	80 18 00             	sbb    BYTE PTR [rax],0x0
   1400060ff:	00 93 18 00 00 e8    	add    BYTE PTR [rbx-0x17ffffe8],dl
   140006105:	70 00                	jo     140006107 <.pdata+0x17>
   140006107:	00 a0 18 00 00 a9    	add    BYTE PTR [rax-0x56ffffe8],ah
   14000610d:	18 00                	sbb    BYTE PTR [rax],al
   14000610f:	00 ec                	add    ah,ch
   140006111:	70 00                	jo     140006113 <.pdata+0x23>
   140006113:	00 b0 18 00 00 c6    	add    BYTE PTR [rax-0x39ffffe8],dh
   140006119:	18 00                	sbb    BYTE PTR [rax],al
   14000611b:	00 f0                	add    al,dh
   14000611d:	70 00                	jo     14000611f <.pdata+0x2f>
   14000611f:	00 d0                	add    al,dl
   140006121:	18 00                	sbb    BYTE PTR [rax],al
   140006123:	00 de                	add    dh,bl
   140006125:	18 00                	sbb    BYTE PTR [rax],al
   140006127:	00 f4                	add    ah,dh
   140006129:	70 00                	jo     14000612b <.pdata+0x3b>
   14000612b:	00 e0                	add    al,ah
   14000612d:	18 00                	sbb    BYTE PTR [rax],al
   14000612f:	00 f6                	add    dh,dh
   140006131:	18 00                	sbb    BYTE PTR [rax],al
   140006133:	00 f8                	add    al,bh
   140006135:	70 00                	jo     140006137 <.pdata+0x47>
   140006137:	00 00                	add    BYTE PTR [rax],al
   140006139:	19 00                	sbb    DWORD PTR [rax],eax
   14000613b:	00 0a                	add    BYTE PTR [rdx],cl
   14000613d:	19 00                	sbb    DWORD PTR [rax],eax
   14000613f:	00 fc                	add    ah,bh
   140006141:	70 00                	jo     140006143 <.pdata+0x53>
   140006143:	00 10                	add    BYTE PTR [rax],dl
   140006145:	19 00                	sbb    DWORD PTR [rax],eax
   140006147:	00 82 19 00 00 00    	add    BYTE PTR [rdx+0x19],al
   14000614d:	71 00                	jno    14000614f <.pdata+0x5f>
	...

0000000140006150 <.pdata>:
   140006150:	90                   	nop
   140006151:	19 00                	sbb    DWORD PTR [rax],eax
   140006153:	00 ac 19 00 00 04 71 	add    BYTE PTR [rcx+rbx*1+0x71040000],ch
   14000615a:	00 00                	add    BYTE PTR [rax],al
   14000615c:	b0 19                	mov    al,0x19
   14000615e:	00 00                	add    BYTE PTR [rax],al
   140006160:	bc 19 00 00 0c       	mov    esp,0xc000019
   140006165:	71 00                	jno    140006167 <.pdata+0x17>
   140006167:	00 c0                	add    al,al
   140006169:	19 00                	sbb    DWORD PTR [rax],eax
   14000616b:	00 de                	add    dh,bl
   14000616d:	19 00                	sbb    DWORD PTR [rax],eax
   14000616f:	00 10                	add    BYTE PTR [rax],dl
   140006171:	71 00                	jno    140006173 <.pdata+0x23>
   140006173:	00 e0                	add    al,ah
   140006175:	19 00                	sbb    DWORD PTR [rax],eax
   140006177:	00 22                	add    BYTE PTR [rdx],ah
   140006179:	1a 00                	sbb    al,BYTE PTR [rax]
   14000617b:	00 14 71             	add    BYTE PTR [rcx+rsi*2],dl
   14000617e:	00 00                	add    BYTE PTR [rax],al
   140006180:	30 1a                	xor    BYTE PTR [rdx],bl
   140006182:	00 00                	add    BYTE PTR [rax],al
   140006184:	73 1a                	jae    1400061a0 <.pdata+0x50>
   140006186:	00 00                	add    BYTE PTR [rax],al
   140006188:	20 71 00             	and    BYTE PTR [rcx+0x0],dh
   14000618b:	00 80 1a 00 00 c7    	add    BYTE PTR [rax-0x38ffffe6],al
   140006191:	1a 00                	sbb    al,BYTE PTR [rax]
   140006193:	00 2c 71             	add    BYTE PTR [rcx+rsi*2],ch
   140006196:	00 00                	add    BYTE PTR [rax],al
   140006198:	d0 1a                	rcr    BYTE PTR [rdx],1
   14000619a:	00 00                	add    BYTE PTR [rax],al
   14000619c:	0f 1b 00             	bndstx [rax],bnd0
   14000619f:	00 38                	add    BYTE PTR [rax],bh
   1400061a1:	71 00                	jno    1400061a3 <.pdata+0x53>
	...

00000001400061a4 <.pdata>:
   1400061a4:	10 1b                	adc    BYTE PTR [rbx],bl
   1400061a6:	00 00                	add    BYTE PTR [rax],al
   1400061a8:	4a 1b 00             	rex.WX sbb rax,QWORD PTR [rax]
   1400061ab:	00 40 71             	add    BYTE PTR [rax+0x71],al
   1400061ae:	00 00                	add    BYTE PTR [rax],al
   1400061b0:	50                   	push   rax
   1400061b1:	1b 00                	sbb    eax,DWORD PTR [rax]
   1400061b3:	00 ba 1b 00 00 48    	add    BYTE PTR [rdx+0x4800001b],bh
   1400061b9:	71 00                	jno    1400061bb <.pdata+0x17>
   1400061bb:	00 c0                	add    al,al
   1400061bd:	1b 00                	sbb    eax,DWORD PTR [rax]
   1400061bf:	00 df                	add    bh,bl
   1400061c1:	1b 00                	sbb    eax,DWORD PTR [rax]
   1400061c3:	00 54 71 00          	add    BYTE PTR [rcx+rsi*2+0x0],dl
	...

00000001400061c8 <.pdata>:
   1400061c8:	e0 1b                	loopne 1400061e5 <.pdata+0x11>
   1400061ca:	00 00                	add    BYTE PTR [rax],al
   1400061cc:	e3 1b                	jrcxz  1400061e9 <.pdata+0x15>
   1400061ce:	00 00                	add    BYTE PTR [rax],al
   1400061d0:	58                   	pop    rax
   1400061d1:	71 00                	jno    1400061d3 <.pdata+0xb>
	...

00000001400061d4 <.pdata>:
   1400061d4:	f0 1b 00             	lock sbb eax,DWORD PTR [rax]
   1400061d7:	00 1f                	add    BYTE PTR [rdi],bl
   1400061d9:	1c 00                	sbb    al,0x0
   1400061db:	00 5c 71 00          	add    BYTE PTR [rcx+rsi*2+0x0],bl
   1400061df:	00 20                	add    BYTE PTR [rax],ah
   1400061e1:	1c 00                	sbb    al,0x0
   1400061e3:	00 a1 1c 00 00 64    	add    BYTE PTR [rcx+0x6400001c],ah
   1400061e9:	71 00                	jno    1400061eb <.pdata+0x17>
   1400061eb:	00 b0 1c 00 00 b3    	add    BYTE PTR [rax-0x4cffffe4],dh
   1400061f1:	1c 00                	sbb    al,0x0
   1400061f3:	00 70 71             	add    BYTE PTR [rax+0x71],dh
	...

00000001400061f8 <.pdata>:
   1400061f8:	c0 1c 00 00          	rcr    BYTE PTR [rax+rax*1],0x0
   1400061fc:	b8 1d 00 00 74       	mov    eax,0x7400001d
   140006201:	71 00                	jno    140006203 <.pdata+0xb>
	...

0000000140006204 <.pdata>:
   140006204:	c0 1d 00 00 c3 1d 00 	rcr    BYTE PTR [rip+0x1dc30000],0x0        # 15dc3620b <.debug_line_str+0x1dc22092>
   14000620b:	00 8c 71 00 00   	add    BYTE PTR [rcx+rsi*2+0x1dd00000],cl

0000000140006210 <.pdata>:
   140006210:	d0 1d 00 00 39 1e    	rcr    BYTE PTR [rip+0x1e390000],1        # 15e396216 <.debug_line_str+0x1e38209d>
   140006216:	00 00                	add    BYTE PTR [rax],al
   140006218:	90                   	nop
   140006219:	71 00                	jno    14000621b <.pdata+0xb>
   14000621b:	00 40 1e             	add    BYTE PTR [rax+0x1e],al
   14000621e:	00 00                	add    BYTE PTR [rax],al
   140006220:	a2 1f 00 00 9c 71 00 	movabs ds:0xb00000719c00001f,al
   140006227:	00 b0 
   140006229:	1f                   	(bad)
   14000622a:	00 00                	add    BYTE PTR [rax],al
   14000622c:	0f 23 00             	mov    dr0,rax
   14000622f:	00 a8 71 00 00     	add    BYTE PTR [rax+0x10000071],ch

0000000140006234 <.pdata>:
   140006234:	10 23                	adc    BYTE PTR [rbx],ah
   140006236:	00 00                	add    BYTE PTR [rax],al
   140006238:	4e 23 00             	rex.WRX and r8,QWORD PTR [rax]
   14000623b:	00 c0                	add    al,al
   14000623d:	71 00                	jno    14000623f <.pdata+0xb>
   14000623f:	00 50 23             	add    BYTE PTR [rax+0x23],dl
   140006242:	00 00                	add    BYTE PTR [rax],al
   140006244:	5c                   	pop    rsp
   140006245:	23 00                	and    eax,DWORD PTR [rax]
   140006247:	00 c8                	add    al,cl
   140006249:	71 00                	jno    14000624b <.pdata+0x17>
	...

000000014000624c <.pdata>:
   14000624c:	60                   	(bad)
   14000624d:	23 00                	and    eax,DWORD PTR [rax]
   14000624f:	00 f8                	add    al,bh
   140006251:	24 00                	and    al,0x0
   140006253:	00 cc                	add    ah,cl
   140006255:	71 00                	jno    140006257 <.pdata+0xb>
	...

0000000140006258 <.pdata>:
   140006258:	00 25 00 00 70 25    	add    BYTE PTR [rip+0x25700000],ah        # 16570625e <.debug_line_str+0x256f20e5>
   14000625e:	00 00                	add    BYTE PTR [rax],al
   140006260:	d4                   	(bad)
   140006261:	71 00                	jno    140006263 <.pdata+0xb>
   140006263:	00 70 25             	add    BYTE PTR [rax+0x25],dh
   140006266:	00 00                	add    BYTE PTR [rax],al
   140006268:	df 25 00 00 e4 71    	fbld   TBYTE PTR [rip+0x71e40000]        # 1b1e4626e <.debug_line_str+0x71e320f5>
   14000626e:	00 00                	add    BYTE PTR [rax],al
   140006270:	e0 25                	loopne 140006297 <.pdata+0xf>
   140006272:	00 00                	add    BYTE PTR [rax],al
   140006274:	61                   	(bad)
   140006275:	26 00 00             	es add BYTE PTR [rax],al
   140006278:	f0 71 00             	lock jno 14000627b <.pdata+0x23>
   14000627b:	00 70 26             	add    BYTE PTR [rax+0x26],dh
   14000627e:	00 00                	add    BYTE PTR [rax],al
   140006280:	62                   	(bad)
   140006281:	27                   	(bad)
   140006282:	00 00                	add    BYTE PTR [rax],al
   140006284:	fc                   	cld
   140006285:	71 00                	jno    140006287 <.pdata+0x2f>
	...

0000000140006288 <.pdata>:
   140006288:	70 27                	jo     1400062b1 <.pdata+0x11>
   14000628a:	00 00                	add    BYTE PTR [rax],al
   14000628c:	7e 27                	jle    1400062b5 <.pdata+0x15>
   14000628e:	00 00                	add    BYTE PTR [rax],al
   140006290:	04 72                	add    al,0x72
   140006292:	00 00                	add    BYTE PTR [rax],al
   140006294:	80 27 00             	and    BYTE PTR [rdi],0x0
   140006297:	00 8e 27 00 00 0c    	add    BYTE PTR [rsi+0xc000027],cl
   14000629d:	72 00                	jb     14000629f <.pdata+0x17>
	...

00000001400062a0 <.pdata>:
   1400062a0:	90                   	nop
   1400062a1:	27                   	(bad)
   1400062a2:	00 00                	add    BYTE PTR [rax],al
   1400062a4:	bc 27 00 00 14       	mov    esp,0x14000027
   1400062a9:	72 00                	jb     1400062ab <.pdata+0xb>
   1400062ab:	00 c0                	add    al,al
   1400062ad:	27                   	(bad)
   1400062ae:	00 00                	add    BYTE PTR [rax],al
   1400062b0:	10 28                	adc    BYTE PTR [rax],ch
   1400062b2:	00 00                	add    BYTE PTR [rax],al
   1400062b4:	18 72 00             	sbb    BYTE PTR [rdx+0x0],dh
   1400062b7:	00 10                	add    BYTE PTR [rax],dl
   1400062b9:	28 00                	sub    BYTE PTR [rax],al
   1400062bb:	00 ad 28 00 00 1c    	add    BYTE PTR [rbp+0x1c000028],ch
   1400062c1:	72 00                	jb     1400062c3 <.pdata+0x23>
   1400062c3:	00 b0 28 00 00 30    	add    BYTE PTR [rax+0x30000028],dh
   1400062c9:	29 00                	sub    DWORD PTR [rax],eax
   1400062cb:	00 28                	add    BYTE PTR [rax],ch
   1400062cd:	72 00                	jb     1400062cf <.pdata+0x2f>
   1400062cf:	00 30                	add    BYTE PTR [rax],dh
   1400062d1:	29 00                	sub    DWORD PTR [rax],eax
   1400062d3:	00 67 29             	add    BYTE PTR [rdi+0x29],ah
   1400062d6:	00 00                	add    BYTE PTR [rax],al
   1400062d8:	2c 72                	sub    al,0x72
   1400062da:	00 00                	add    BYTE PTR [rax],al
   1400062dc:	70 29                	jo     140006307 <.pdata+0x67>
   1400062de:	00 00                	add    BYTE PTR [rax],al
   1400062e0:	e3 29                	jrcxz  14000630b <.pdata+0x6b>
   1400062e2:	00 00                	add    BYTE PTR [rax],al
   1400062e4:	30 72 00             	xor    BYTE PTR [rdx+0x0],dh
   1400062e7:	00 f0                	add    al,dh
   1400062e9:	29 00                	sub    DWORD PTR [rax],eax
   1400062eb:	00 26                	add    BYTE PTR [rsi],ah
   1400062ed:	2a 00                	sub    al,BYTE PTR [rax]
   1400062ef:	00 34 72             	add    BYTE PTR [rdx+rsi*2],dh
   1400062f2:	00 00                	add    BYTE PTR [rax],al
   1400062f4:	30 2a                	xor    BYTE PTR [rdx],ch
   1400062f6:	00 00                	add    BYTE PTR [rax],al
   1400062f8:	b9 2a 00 00 38       	mov    ecx,0x3800002a
   1400062fd:	72 00                	jb     1400062ff <.pdata+0x5f>
   1400062ff:	00 c0                	add    al,al
   140006301:	2a 00                	sub    al,BYTE PTR [rax]
   140006303:	00 86 2b 00 00 3c    	add    BYTE PTR [rsi+0x3c00002b],al
   140006309:	72 00                	jb     14000630b <.pdata+0x6b>
	...

000000014000630c <.pdata>:
   14000630c:	d0 2b                	shr    BYTE PTR [rbx],1
   14000630e:	00 00                	add    BYTE PTR [rax],al
   140006310:	ee                   	out    dx,al
   140006311:	2b 00                	sub    eax,DWORD PTR [rax]
   140006313:	00 40 72             	add    BYTE PTR [rax+0x72],al
	...

0000000140006318 <.pdata>:
   140006318:	f0 2b 00             	lock sub eax,DWORD PTR [rax]
   14000631b:	00 22                	add    BYTE PTR [rdx],ah
   14000631d:	2c 00                	sub    al,0x0
   14000631f:	00 48 72             	add    BYTE PTR [rax+0x72],cl
	...

0000000140006324 <.pdata>:
   140006324:	30 2c 00             	xor    BYTE PTR [rax+rax*1],ch
   140006327:	00 33                	add    BYTE PTR [rbx],dh
   140006329:	2c 00                	sub    al,0x0
   14000632b:	00 50 72             	add    BYTE PTR [rax+0x72],dl
   14000632e:	00 00                	add    BYTE PTR [rax],al
   140006330:	40 2c 00             	rex sub al,0x0
   140006333:	00 aa 2c 00 00 54    	add    BYTE PTR [rdx+0x5400002c],ch
   140006339:	72 00                	jb     14000633b <.pdata+0x17>
   14000633b:	00 b0 2c 00 00 1a    	add    BYTE PTR [rax+0x1a00002c],dh
   140006341:	2d 00 00 64 72       	sub    eax,0x72640000
   140006346:	00 00                	add    BYTE PTR [rax],al
   140006348:	20 2d 00 00 3e 2d    	and    BYTE PTR [rip+0x2d3e0000],ch        # 16d3e634e <.debug_line_str+0x2d3d21d5>
   14000634e:	00 00                	add    BYTE PTR [rax],al
   140006350:	74 72                	je     1400063c4 <.pdata.startup+0x34>
   140006352:	00 00                	add    BYTE PTR [rax],al
   140006354:	40 2d 00 00 55 2d    	rex sub eax,0x2d550000
   14000635a:	00 00                	add    BYTE PTR [rax],al
   14000635c:	7c 72                	jl     1400063d0 <.pdata.startup+0x40>
   14000635e:	00 00                	add    BYTE PTR [rax],al
   140006360:	60                   	(bad)
   140006361:	2d 00 00 92 2d       	sub    eax,0x2d920000
   140006366:	00 00                	add    BYTE PTR [rax],al
   140006368:	80 72 00 00          	xor    BYTE PTR [rdx+0x0],0x0
   14000636c:	a0 2d 00 00 d5 2d 00 	movabs al,ds:0x8800002dd500002d
   140006373:	00 88 
   140006375:	72 00                	jb     140006377 <.pdata+0x53>
   140006377:	00 e0                	add    al,ah
   140006379:	2d 00 00 16 2e       	sub    eax,0x2e160000
   14000637e:	00 00                	add    BYTE PTR [rax],al
   140006380:	90                   	nop
   140006381:	72 00                	jb     140006383 <.pdata+0x5f>
   140006383:	00 20                	add    BYTE PTR [rax],ah
   140006385:	2e 00 00             	cs add BYTE PTR [rax],al
   140006388:	56                   	push   rsi
   140006389:	2e 00 00             	cs add BYTE PTR [rax],al
   14000638c:	98                   	cwde
   14000638d:	72 00                	jb     14000638f <.pdata+0x6b>
	...

0000000140006390 <.pdata.startup>:
   140006390:	00 30                	add    BYTE PTR [rax],dh
   140006392:	00 00                	add    BYTE PTR [rax],al
   140006394:	05 30 00 00 a0       	add    eax,0xa0000030
   140006399:	72 00                	jb     14000639b <.pdata.startup+0xb>
	...

Disassembly of section .xdata:

0000000140007000 <.xdata>:
   140007000:	01 00                	add    DWORD PTR [rax],eax
   140007002:	00 00                	add    BYTE PTR [rax],al
   140007004:	01 04 01             	add    DWORD PTR [rcx+rax*1],eax
   140007007:	00 04 42             	add    BYTE PTR [rdx+rax*2],al
   14000700a:	00 00                	add    BYTE PTR [rax],al
   14000700c:	01 04 01             	add    DWORD PTR [rcx+rax*1],eax
   14000700f:	00 04 62             	add    BYTE PTR [rdx+riz*2],al
   140007012:	00 00                	add    BYTE PTR [rax],al
   140007014:	01 0a                	add    DWORD PTR [rdx],ecx
   140007016:	06                   	(bad)
   140007017:	00 0a                	add    BYTE PTR [rdx],cl
   140007019:	32 06                	xor    al,BYTE PTR [rsi]
   14000701b:	30 05 60 04 70 03    	xor    BYTE PTR [rip+0x3700460],al        # 143707481 <.debug_line_str+0x36f3308>
   140007021:	50                   	push   rax
   140007022:	02 c0                	add    al,al
   140007024:	09 04 01             	or     DWORD PTR [rcx+rax*1],eax
   140007027:	00 04 42             	add    BYTE PTR [rdx+rax*2],al
   14000702a:	00 00                	add    BYTE PTR [rax],al
   14000702c:	50                   	push   rax
   14000702d:	2f                   	(bad)
   14000702e:	00 00                	add    BYTE PTR [rax],al
   140007030:	01 00                	add    DWORD PTR [rax],eax
   140007032:	00 00                	add    BYTE PTR [rax],al
   140007034:	d4                   	(bad)
   140007035:	13 00                	adc    eax,DWORD PTR [rax]
   140007037:	00 e7                	add    bh,ah
   140007039:	13 00                	adc    eax,DWORD PTR [rax]
   14000703b:	00 60 23             	add    BYTE PTR [rax+0x23],ah
   14000703e:	00 00                	add    BYTE PTR [rax],al
   140007040:	e7 13                	out    0x13,eax
   140007042:	00 00                	add    BYTE PTR [rax],al
   140007044:	09 04 01             	or     DWORD PTR [rcx+rax*1],eax
   140007047:	00 04 42             	add    BYTE PTR [rdx+rax*2],al
   14000704a:	00 00                	add    BYTE PTR [rax],al
   14000704c:	50                   	push   rax
   14000704d:	2f                   	(bad)
   14000704e:	00 00                	add    BYTE PTR [rax],al
   140007050:	01 00                	add    DWORD PTR [rax],eax
   140007052:	00 00                	add    BYTE PTR [rax],al
   140007054:	f4                   	hlt
   140007055:	13 00                	adc    eax,DWORD PTR [rax]
   140007057:	00 07                	add    BYTE PTR [rdi],al
   140007059:	14 00                	adc    al,0x0
   14000705b:	00 60 23             	add    BYTE PTR [rax+0x23],ah
   14000705e:	00 00                	add    BYTE PTR [rax],al
   140007060:	07                   	(bad)
   140007061:	14 00                	adc    al,0x0
   140007063:	00 01                	add    BYTE PTR [rcx],al
   140007065:	04 01                	add    al,0x1
   140007067:	00 04 42             	add    BYTE PTR [rdx+rax*2],al
	...

000000014000706c <.xdata>:
   14000706c:	01 00                	add    DWORD PTR [rax],eax
   14000706e:	00 00                	add    BYTE PTR [rax],al
   140007070:	01 00                	add    DWORD PTR [rax],eax
	...

0000000140007074 <.xdata>:
   140007074:	01 08                	add    DWORD PTR [rax],ecx
   140007076:	03 05 08 52 04 03    	add    eax,DWORD PTR [rip+0x3045208]        # 14304c284 <.debug_line_str+0x303810b>
   14000707c:	01 50 00             	add    DWORD PTR [rax+0x0],edx
	...

0000000140007080 <.xdata>:
   140007080:	01 04 01             	add    DWORD PTR [rcx+rax*1],eax
   140007083:	00 04 42             	add    BYTE PTR [rdx+rax*2],al
   140007086:	00 00                	add    BYTE PTR [rax],al
   140007088:	01 07                	add    DWORD PTR [rdi],eax
   14000708a:	04 00                	add    al,0x0
   14000708c:	07                   	(bad)
   14000708d:	32 03                	xor    al,BYTE PTR [rbx]
   14000708f:	30 02                	xor    BYTE PTR [rdx],al
   140007091:	60                   	(bad)
   140007092:	01 70 01             	add    DWORD PTR [rax+0x1],esi
   140007095:	06                   	(bad)
   140007096:	03 00                	add    eax,DWORD PTR [rax]
   140007098:	06                   	(bad)
   140007099:	42 02 30             	rex.X add sil,BYTE PTR [rax]
   14000709c:	01 60 00             	add    DWORD PTR [rax+0x0],esp
   14000709f:	00 01                	add    BYTE PTR [rcx],al
   1400070a1:	07                   	(bad)
   1400070a2:	04 00                	add    al,0x0
   1400070a4:	07                   	(bad)
   1400070a5:	32 03                	xor    al,BYTE PTR [rbx]
   1400070a7:	30 02                	xor    BYTE PTR [rdx],al
   1400070a9:	60                   	(bad)
   1400070aa:	01 70 01             	add    DWORD PTR [rax+0x1],esi
   1400070ad:	07                   	(bad)
   1400070ae:	04 00                	add    al,0x0
   1400070b0:	07                   	(bad)
   1400070b1:	32 03                	xor    al,BYTE PTR [rbx]
   1400070b3:	30 02                	xor    BYTE PTR [rdx],al
   1400070b5:	60                   	(bad)
   1400070b6:	01 70 01             	add    DWORD PTR [rax+0x1],esi
   1400070b9:	00 00                	add    BYTE PTR [rax],al
   1400070bb:	00 01                	add    BYTE PTR [rcx],al
   1400070bd:	06                   	(bad)
   1400070be:	03 00                	add    eax,DWORD PTR [rax]
   1400070c0:	06                   	(bad)
   1400070c1:	42 02 30             	rex.X add sil,BYTE PTR [rax]
   1400070c4:	01 60 00             	add    DWORD PTR [rax+0x0],esp
   1400070c7:	00 01                	add    BYTE PTR [rcx],al
   1400070c9:	07                   	(bad)
   1400070ca:	04 00                	add    al,0x0
   1400070cc:	07                   	(bad)
   1400070cd:	32 03                	xor    al,BYTE PTR [rbx]
   1400070cf:	30 02                	xor    BYTE PTR [rdx],al
   1400070d1:	60                   	(bad)
   1400070d2:	01 70 01             	add    DWORD PTR [rax+0x1],esi
   1400070d5:	00 00                	add    BYTE PTR [rax],al
   1400070d7:	00 01                	add    BYTE PTR [rcx],al
   1400070d9:	07                   	(bad)
   1400070da:	04 00                	add    al,0x0
   1400070dc:	07                   	(bad)
   1400070dd:	32 03                	xor    al,BYTE PTR [rbx]
   1400070df:	30 02                	xor    BYTE PTR [rdx],al
   1400070e1:	60                   	(bad)
   1400070e2:	01 70              	add    DWORD PTR [rax+0x1],esi

00000001400070e4 <.xdata>:
   1400070e4:	01 00                	add    DWORD PTR [rax],eax
   1400070e6:	00 00                	add    BYTE PTR [rax],al
   1400070e8:	01 00                	add    DWORD PTR [rax],eax
   1400070ea:	00 00                	add    BYTE PTR [rax],al
   1400070ec:	01 00                	add    DWORD PTR [rax],eax
   1400070ee:	00 00                	add    BYTE PTR [rax],al
   1400070f0:	01 00                	add    DWORD PTR [rax],eax
   1400070f2:	00 00                	add    BYTE PTR [rax],al
   1400070f4:	01 00                	add    DWORD PTR [rax],eax
   1400070f6:	00 00                	add    BYTE PTR [rax],al
   1400070f8:	01 00                	add    DWORD PTR [rax],eax
   1400070fa:	00 00                	add    BYTE PTR [rax],al
   1400070fc:	01 00                	add    DWORD PTR [rax],eax
   1400070fe:	00 00                	add    BYTE PTR [rax],al
   140007100:	01 00                	add    DWORD PTR [rax],eax
	...

0000000140007104 <.xdata>:
   140007104:	01 04 01             	add    DWORD PTR [rcx+rax*1],eax
   140007107:	00 04 42             	add    BYTE PTR [rdx+rax*2],al
   14000710a:	00 00                	add    BYTE PTR [rax],al
   14000710c:	01 00                	add    DWORD PTR [rax],eax
   14000710e:	00 00                	add    BYTE PTR [rax],al
   140007110:	01 00                	add    DWORD PTR [rax],eax
   140007112:	00 00                	add    BYTE PTR [rax],al
   140007114:	01 06                	add    DWORD PTR [rsi],eax
   140007116:	03 00                	add    eax,DWORD PTR [rax]
   140007118:	06                   	(bad)
   140007119:	62 02                	(bad)
   14000711b:	30 01                	xor    BYTE PTR [rcx],al
   14000711d:	60                   	(bad)
   14000711e:	00 00                	add    BYTE PTR [rax],al
   140007120:	01 07                	add    DWORD PTR [rdi],eax
   140007122:	04 00                	add    al,0x0
   140007124:	07                   	(bad)
   140007125:	52                   	push   rdx
   140007126:	03 30                	add    esi,DWORD PTR [rax]
   140007128:	02 60 01             	add    ah,BYTE PTR [rax+0x1]
   14000712b:	70 01                	jo     14000712e <.xdata+0x2a>
   14000712d:	07                   	(bad)
   14000712e:	04 00                	add    al,0x0
   140007130:	07                   	(bad)
   140007131:	52                   	push   rdx
   140007132:	03 30                	add    esi,DWORD PTR [rax]
   140007134:	02 60 01             	add    ah,BYTE PTR [rax+0x1]
   140007137:	70 01                	jo     14000713a <.xdata+0x36>
   140007139:	05 02 00 05 52       	add    eax,0x52050002
   14000713e:	01 30                	add    DWORD PTR [rax],esi

0000000140007140 <.xdata>:
   140007140:	01 04 01             	add    DWORD PTR [rcx+rax*1],eax
   140007143:	00 04 42             	add    BYTE PTR [rdx+rax*2],al
   140007146:	00 00                	add    BYTE PTR [rax],al
   140007148:	01 06                	add    DWORD PTR [rsi],eax
   14000714a:	03 00                	add    eax,DWORD PTR [rax]
   14000714c:	06                   	(bad)
   14000714d:	42 02 30             	rex.X add sil,BYTE PTR [rax]
   140007150:	01 60 00             	add    DWORD PTR [rax+0x0],esp
   140007153:	00 01                	add    BYTE PTR [rcx],al
   140007155:	00 00                	add    BYTE PTR [rax],al
	...

0000000140007158 <.xdata>:
   140007158:	01 00                	add    DWORD PTR [rax],eax
	...

000000014000715c <.xdata>:
   14000715c:	01 04 01             	add    DWORD PTR [rcx+rax*1],eax
   14000715f:	00 04 42             	add    BYTE PTR [rdx+rax*2],al
   140007162:	00 00                	add    BYTE PTR [rax],al
   140007164:	01 06                	add    DWORD PTR [rsi],eax
   140007166:	03 00                	add    eax,DWORD PTR [rax]
   140007168:	06                   	(bad)
   140007169:	42 02 30             	rex.X add sil,BYTE PTR [rax]
   14000716c:	01 60 00             	add    DWORD PTR [rax+0x0],esp
   14000716f:	00 01                	add    BYTE PTR [rcx],al
   140007171:	00 00                	add    BYTE PTR [rax],al
	...

0000000140007174 <.xdata>:
   140007174:	01 16                	add    DWORD PTR [rsi],edx
   140007176:	09 00                	or     DWORD PTR [rax],eax
   140007178:	16                   	(bad)
   140007179:	88 06                	mov    BYTE PTR [rsi],al
   14000717b:	00 10                	add    BYTE PTR [rax],dl
   14000717d:	78 05                	js     140007184 <.xdata+0x10>
   14000717f:	00 0b                	add    BYTE PTR [rbx],cl
   140007181:	68 04 00 06 e2       	push   0xffffffffe2060004
   140007186:	02 30                	add    dh,BYTE PTR [rax]
   140007188:	01 60 00             	add    DWORD PTR [rax+0x0],esp
	...

000000014000718c <.xdata>:
   14000718c:	01 00                	add    DWORD PTR [rax],eax
	...

0000000140007190 <.xdata>:
   140007190:	01 06                	add    DWORD PTR [rsi],eax
   140007192:	03 00                	add    eax,DWORD PTR [rax]
   140007194:	06                   	(bad)
   140007195:	62 02                	(bad)
   140007197:	30 01                	xor    BYTE PTR [rcx],al
   140007199:	60                   	(bad)
   14000719a:	00 00                	add    BYTE PTR [rax],al
   14000719c:	01 07                	add    DWORD PTR [rdi],eax
   14000719e:	04 00                	add    al,0x0
   1400071a0:	07                   	(bad)
   1400071a1:	92                   	xchg   edx,eax
   1400071a2:	03 30                	add    esi,DWORD PTR [rax]
   1400071a4:	02 60 01             	add    ah,BYTE PTR [rax+0x1]
   1400071a7:	70 01                	jo     1400071aa <.xdata+0x1a>
   1400071a9:	15 0a 45 15 03       	adc    eax,0x315450a
   1400071ae:	10 82 0c 30 0b 60    	adc    BYTE PTR [rdx+0x600b300c],al
   1400071b4:	0a 70 09             	or     dh,BYTE PTR [rax+0x9]
   1400071b7:	c0 07 d0             	rol    BYTE PTR [rdi],0xd0
   1400071ba:	05 e0 03 f0 01       	add    eax,0x1f003e0
   1400071bf:	50                   	push   rax

00000001400071c0 <.xdata>:
   1400071c0:	01 04 01             	add    DWORD PTR [rcx+rax*1],eax
   1400071c3:	00 04 a2             	add    BYTE PTR [rdx+riz*4],al
   1400071c6:	00 00                	add    BYTE PTR [rax],al
   1400071c8:	01 00                	add    DWORD PTR [rax],eax
	...

00000001400071cc <.xdata>:
   1400071cc:	01 05 02 00 05 32    	add    DWORD PTR [rip+0x32050002],eax        # 1720571d4 <.debug_line_str+0x3204305b>
   1400071d2:	01 30                	add    DWORD PTR [rax],esi

00000001400071d4 <.xdata>:
   1400071d4:	01 0a                	add    DWORD PTR [rdx],ecx
   1400071d6:	06                   	(bad)
   1400071d7:	00 0a                	add    BYTE PTR [rdx],cl
   1400071d9:	32 06                	xor    al,BYTE PTR [rsi]
   1400071db:	30 05 60 04 70 03    	xor    BYTE PTR [rip+0x3700460],al        # 143707641 <.debug_line_str+0x36f34c8>
   1400071e1:	50                   	push   rax
   1400071e2:	02 c0                	add    al,al
   1400071e4:	01 07                	add    DWORD PTR [rdi],eax
   1400071e6:	04 00                	add    al,0x0
   1400071e8:	07                   	(bad)
   1400071e9:	32 03                	xor    al,BYTE PTR [rbx]
   1400071eb:	30 02                	xor    BYTE PTR [rdx],al
   1400071ed:	60                   	(bad)
   1400071ee:	01 70 01             	add    DWORD PTR [rax+0x1],esi
   1400071f1:	06                   	(bad)
   1400071f2:	03 00                	add    eax,DWORD PTR [rax]
   1400071f4:	06                   	(bad)
   1400071f5:	42 02 30             	rex.X add sil,BYTE PTR [rax]
   1400071f8:	01 60 00             	add    DWORD PTR [rax+0x0],esp
   1400071fb:	00 01                	add    BYTE PTR [rcx],al
   1400071fd:	05 02 00 05 32       	add    eax,0x32050002
   140007202:	01 30                	add    DWORD PTR [rax],esi

0000000140007204 <.xdata>:
   140007204:	01 04 01             	add    DWORD PTR [rcx+rax*1],eax
   140007207:	00 04 42             	add    BYTE PTR [rdx+rax*2],al
   14000720a:	00 00                	add    BYTE PTR [rax],al
   14000720c:	01 04 01             	add    DWORD PTR [rcx+rax*1],eax
   14000720f:	00 04 42             	add    BYTE PTR [rdx+rax*2],al
	...

0000000140007214 <.xdata>:
   140007214:	01 00                	add    DWORD PTR [rax],eax
   140007216:	00 00                	add    BYTE PTR [rax],al
   140007218:	01 00                	add    DWORD PTR [rax],eax
   14000721a:	00 00                	add    BYTE PTR [rax],al
   14000721c:	01 07                	add    DWORD PTR [rdi],eax
   14000721e:	04 00                	add    al,0x0
   140007220:	07                   	(bad)
   140007221:	32 03                	xor    al,BYTE PTR [rbx]
   140007223:	30 02                	xor    BYTE PTR [rdx],al
   140007225:	60                   	(bad)
   140007226:	01 70 01             	add    DWORD PTR [rax+0x1],esi
   140007229:	00 00                	add    BYTE PTR [rax],al
   14000722b:	00 01                	add    BYTE PTR [rcx],al
   14000722d:	00 00                	add    BYTE PTR [rax],al
   14000722f:	00 01                	add    BYTE PTR [rcx],al
   140007231:	00 00                	add    BYTE PTR [rax],al
   140007233:	00 01                	add    BYTE PTR [rcx],al
   140007235:	00 00                	add    BYTE PTR [rax],al
   140007237:	00 01                	add    BYTE PTR [rcx],al
   140007239:	00 00                	add    BYTE PTR [rax],al
   14000723b:	00 01                	add    BYTE PTR [rcx],al
   14000723d:	00 00                	add    BYTE PTR [rax],al
	...

0000000140007240 <.xdata>:
   140007240:	01 04 01             	add    DWORD PTR [rcx+rax*1],eax
   140007243:	00 04 62             	add    BYTE PTR [rdx+riz*2],al
	...

0000000140007248 <.xdata>:
   140007248:	01 04 01             	add    DWORD PTR [rcx+rax*1],eax
   14000724b:	00 04 82             	add    BYTE PTR [rdx+rax*4],al
	...

0000000140007250 <.xdata>:
   140007250:	01 00                	add    DWORD PTR [rax],eax
   140007252:	00 00                	add    BYTE PTR [rax],al
   140007254:	01 0a                	add    DWORD PTR [rdx],ecx
   140007256:	06                   	(bad)
   140007257:	00 0a                	add    BYTE PTR [rdx],cl
   140007259:	32 06                	xor    al,BYTE PTR [rsi]
   14000725b:	30 05 60 04 70 03    	xor    BYTE PTR [rip+0x3700460],al        # 1437076c1 <.debug_line_str+0x36f3548>
   140007261:	50                   	push   rax
   140007262:	02 c0                	add    al,al
   140007264:	01 0a                	add    DWORD PTR [rdx],ecx
   140007266:	06                   	(bad)
   140007267:	00 0a                	add    BYTE PTR [rdx],cl
   140007269:	32 06                	xor    al,BYTE PTR [rsi]
   14000726b:	30 05 60 04 70 03    	xor    BYTE PTR [rip+0x3700460],al        # 1437076d1 <.debug_line_str+0x36f3558>
   140007271:	50                   	push   rax
   140007272:	02 c0                	add    al,al
   140007274:	01 05 02 00 05 32    	add    DWORD PTR [rip+0x32050002],eax        # 17205727c <.debug_line_str+0x32043103>
   14000727a:	01 30                	add    DWORD PTR [rax],esi
   14000727c:	01 00                	add    DWORD PTR [rax],eax
   14000727e:	00 00                	add    BYTE PTR [rax],al
   140007280:	01 05 02 00 05 32    	add    DWORD PTR [rip+0x32050002],eax        # 172057288 <.debug_line_str+0x3204310f>
   140007286:	01 30                	add    DWORD PTR [rax],esi
   140007288:	01 04 01             	add    DWORD PTR [rcx+rax*1],eax
   14000728b:	00 04 82             	add    BYTE PTR [rdx+rax*4],al
   14000728e:	00 00                	add    BYTE PTR [rax],al
   140007290:	01 04 01             	add    DWORD PTR [rcx+rax*1],eax
   140007293:	00 04 42             	add    BYTE PTR [rdx+rax*2],al
   140007296:	00 00                	add    BYTE PTR [rax],al
   140007298:	01 04 01             	add    DWORD PTR [rcx+rax*1],eax
   14000729b:	00 04 42             	add    BYTE PTR [rdx+rax*2],al
	...

00000001400072a0 <.xdata.startup>:
   1400072a0:	01 00                	add    DWORD PTR [rax],eax
	...

Disassembly of section .idata:

0000000140009000 <_head_lib64_libkernel32_a>:
   140009000:	c8 90 00 00          	enter  0x90,0x0
	...
   14000900c:	fc                   	cld
   14000900d:	97                   	xchg   edi,eax
   14000900e:	00 00                	add    BYTE PTR [rax],al
   140009010:	a8 92                	test   al,0x92
	...

0000000140009014 <_head_lib64_libapi_ms_win_crt_environment_l1_1_0_a>:
   140009014:	20 91 00 00 00 00    	and    BYTE PTR [rcx+0x0],dl
   14000901a:	00 00                	add    BYTE PTR [rax],al
   14000901c:	00 00                	add    BYTE PTR [rax],al
   14000901e:	00 00                	add    BYTE PTR [rax],al
   140009020:	14 98                	adc    al,0x98
   140009022:	00 00                	add    BYTE PTR [rax],al
   140009024:	00 93 00 00      	add    BYTE PTR [rbx-0x6ec80000],dl

0000000140009028 <_head_lib64_libapi_ms_win_crt_heap_l1_1_0_a>:
   140009028:	38 91 00 00 00 00    	cmp    BYTE PTR [rcx+0x0],dl
   14000902e:	00 00                	add    BYTE PTR [rax],al
   140009030:	00 00                	add    BYTE PTR [rax],al
   140009032:	00 00                	add    BYTE PTR [rax],al
   140009034:	50                   	push   rax
   140009035:	98                   	cwde
   140009036:	00 00                	add    BYTE PTR [rax],al
   140009038:	18 93 00 00      	sbb    BYTE PTR [rbx-0x6e980000],dl

000000014000903c <_head_lib64_libapi_ms_win_crt_math_l1_1_0_a>:
   14000903c:	68 91 00 00 00       	push   0x91
   140009041:	00 00                	add    BYTE PTR [rax],al
   140009043:	00 00                	add    BYTE PTR [rax],al
   140009045:	00 00                	add    BYTE PTR [rax],al
   140009047:	00 74 98 00          	add    BYTE PTR [rax+rbx*4+0x0],dh
   14000904b:	00 48 93             	add    BYTE PTR [rax-0x6d],cl
	...

0000000140009050 <_head_lib64_libapi_ms_win_crt_private_l1_1_0_a>:
   140009050:	78 91                	js     140008fe3 <__bss_end__+0xe63>
	...
   14000905a:	00 00                	add    BYTE PTR [rax],al
   14000905c:	9c                   	pushf
   14000905d:	98                   	cwde
   14000905e:	00 00                	add    BYTE PTR [rax],al
   140009060:	58                   	pop    rax
   140009061:	93                   	xchg   ebx,eax
	...

0000000140009064 <_head_lib64_libapi_ms_win_crt_runtime_l1_1_0_a>:
   140009064:	90                   	nop
   140009065:	91                   	xchg   ecx,eax
	...
   14000906e:	00 00                	add    BYTE PTR [rax],al
   140009070:	04 99                	add    al,0x99
   140009072:	00 00                	add    BYTE PTR [rax],al
   140009074:	70 93                	jo     140009009 <_head_lib64_libkernel32_a+0x9>
	...

0000000140009078 <_head_lib64_libapi_ms_win_crt_stdio_l1_1_0_a>:
   140009078:	20 92 00 00 00 00    	and    BYTE PTR [rdx+0x0],dl
   14000907e:	00 00                	add    BYTE PTR [rax],al
   140009080:	00 00                	add    BYTE PTR [rax],al
   140009082:	00 00                	add    BYTE PTR [rax],al
   140009084:	48 99                	cqo
   140009086:	00 00                	add    BYTE PTR [rax],al
   140009088:	00 94 00 00    	add    BYTE PTR [rax+rax*1+0x926800],dl

000000014000908c <_head_lib64_libapi_ms_win_crt_string_l1_1_0_a>:
   14000908c:	68 92 00 00 00       	push   0x92
   140009091:	00 00                	add    BYTE PTR [rax],al
   140009093:	00 00                	add    BYTE PTR [rax],al
   140009095:	00 00                	add    BYTE PTR [rax],al
   140009097:	00 70 99             	add    BYTE PTR [rax-0x67],dh
   14000909a:	00 00                	add    BYTE PTR [rax],al
   14000909c:	48 94                	xchg   rsp,rax
	...

00000001400090a0 <_head_lib64_libapi_ms_win_crt_time_l1_1_0_a>:
   1400090a0:	80 92 00 00 00 00 00 	adc    BYTE PTR [rdx+0x0],0x0
   1400090a7:	00 00                	add    BYTE PTR [rax],al
   1400090a9:	00 00                	add    BYTE PTR [rax],al
   1400090ab:	00 a4 99 00 00 60 94 	add    BYTE PTR [rcx+rbx*4-0x6ba00000],ah
	...

00000001400090c8 <hname>:
   1400090c8:	88 94 00 00 00 00 00 	mov    BYTE PTR [rax+rax*1+0x0],dl
	...

00000001400090d0 <.idata$4>:
   1400090d0:	a0 94 00 00 00 00 00 	movabs al,ds:0xb800000000000094
   1400090d7:	00  

00000001400090d8 <.idata$4>:
   1400090d8:	b8 94 00 00 00       	mov    eax,0x94
   1400090dd:	00 00                	add    BYTE PTR [rax],al
	...

00000001400090e0 <.idata$4>:
   1400090e0:	c8 94 00 00          	enter  0x94,0x0
   1400090e4:	00 00                	add    BYTE PTR [rax],al
	...

00000001400090e8 <.idata$4>:
   1400090e8:	e4 94                	in     al,0x94
   1400090ea:	00 00                	add    BYTE PTR [rax],al
   1400090ec:	00 00                	add    BYTE PTR [rax],al
	...

00000001400090f0 <.idata$4>:
   1400090f0:	fc                   	cld
   1400090f1:	94                   	xchg   esp,eax
   1400090f2:	00 00                	add    BYTE PTR [rax],al
   1400090f4:	00 00                	add    BYTE PTR [rax],al
	...

00000001400090f8 <.idata$4>:
   1400090f8:	1a 95 00 00 00 00    	sbb    dl,BYTE PTR [rbp+0x0]
	...

0000000140009100 <.idata$4>:
   140009100:	22 95 00 00 00 00    	and    dl,BYTE PTR [rbp+0x0]
	...

0000000140009108 <.idata$4>:
   140009108:	30 95 00 00 00 00    	xor    BYTE PTR [rbp+0x0],dl
	...

0000000140009110 <.idata$4>:
   140009110:	42 95                	rex.X xchg ebp,eax
   140009112:	00 00                	add    BYTE PTR [rax],al
   140009114:	00 00                	add    BYTE PTR [rax],al
	...

0000000140009118 <.idata$4>:
	...

0000000140009120 <hname>:
   140009120:	52                   	push   rdx
   140009121:	95                   	xchg   ebp,eax
   140009122:	00 00                	add    BYTE PTR [rax],al
   140009124:	00 00                	add    BYTE PTR [rax],al
	...

0000000140009128 <.idata$4>:
   140009128:	62 95                	(bad)
   14000912a:	00 00                	add    BYTE PTR [rax],al
   14000912c:	00 00                	add    BYTE PTR [rax],al
	...

0000000140009130 <.idata$4>:
	...

0000000140009138 <hname>:
   140009138:	72 95                	jb     1400090cf <hname+0x7>
   14000913a:	00 00                	add    BYTE PTR [rax],al
   14000913c:	00 00                	add    BYTE PTR [rax],al
	...

0000000140009140 <.idata$4>:
   140009140:	82                   	(bad)
   140009141:	95                   	xchg   ebp,eax
   140009142:	00 00                	add    BYTE PTR [rax],al
   140009144:	00 00                	add    BYTE PTR [rax],al
	...

0000000140009148 <.idata$4>:
   140009148:	8c 95 00 00 00 00    	mov    WORD PTR [rbp+0x0],ss
	...

0000000140009150 <.idata$4>:
   140009150:	94                   	xchg   esp,eax
   140009151:	95                   	xchg   ebp,eax
   140009152:	00 00                	add    BYTE PTR [rax],al
   140009154:	00 00                	add    BYTE PTR [rax],al
	...

0000000140009158 <.idata$4>:
   140009158:	9e                   	sahf
   140009159:	95                   	xchg   ebp,eax
   14000915a:	00 00                	add    BYTE PTR [rax],al
   14000915c:	00 00                	add    BYTE PTR [rax],al
	...

0000000140009160 <.idata$4>:
	...

0000000140009168 <hname>:
   140009168:	a8 95                	test   al,0x95
   14000916a:	00 00                	add    BYTE PTR [rax],al
   14000916c:	00 00                	add    BYTE PTR [rax],al
	...

0000000140009170 <.idata$4>:
	...

0000000140009178 <hname>:
   140009178:	bc 95 00 00 00       	mov    esp,0x95
   14000917d:	00 00                	add    BYTE PTR [rax],al
	...

0000000140009180 <.idata$4>:
   140009180:	d4                   	(bad)
   140009181:	95                   	xchg   ebp,eax
   140009182:	00 00                	add    BYTE PTR [rax],al
   140009184:	00 00                	add    BYTE PTR [rax],al
	...

0000000140009188 <.idata$4>:
	...

0000000140009190 <hname>:
   140009190:	de 95 00 00 00 00    	ficom  WORD PTR [rbp+0x0]
	...

0000000140009198 <.idata$4>:
   140009198:	ec                   	in     al,dx
   140009199:	95                   	xchg   ebp,eax
   14000919a:	00 00                	add    BYTE PTR [rax],al
   14000919c:	00 00                	add    BYTE PTR [rax],al
	...

00000001400091a0 <.idata$4>:
   1400091a0:	fa                   	cli
   1400091a1:	95                   	xchg   ebp,eax
   1400091a2:	00 00                	add    BYTE PTR [rax],al
   1400091a4:	00 00                	add    BYTE PTR [rax],al
	...

00000001400091a8 <.idata$4>:
   1400091a8:	08 96 00 00 00 00    	or     BYTE PTR [rsi+0x0],dl
	...

00000001400091b0 <.idata$4>:
   1400091b0:	12 96 00 00 00 00    	adc    dl,BYTE PTR [rsi+0x0]
	...

00000001400091b8 <.idata$4>:
   1400091b8:	2c 96                	sub    al,0x96
   1400091ba:	00 00                	add    BYTE PTR [rax],al
   1400091bc:	00 00                	add    BYTE PTR [rax],al
	...

00000001400091c0 <.idata$4>:
   1400091c0:	44 96                	rex.R xchg esi,eax
   1400091c2:	00 00                	add    BYTE PTR [rax],al
   1400091c4:	00 00                	add    BYTE PTR [rax],al
	...

00000001400091c8 <.idata$4>:
   1400091c8:	5a                   	pop    rdx
   1400091c9:	96                   	xchg   esi,eax
   1400091ca:	00 00                	add    BYTE PTR [rax],al
   1400091cc:	00 00                	add    BYTE PTR [rax],al
	...

00000001400091d0 <.idata$4>:
   1400091d0:	68 96 00 00 00       	push   0x96
   1400091d5:	00 00                	add    BYTE PTR [rax],al
	...

00000001400091d8 <.idata$4>:
   1400091d8:	70 96                	jo     140009170 <.idata$4>
   1400091da:	00 00                	add    BYTE PTR [rax],al
   1400091dc:	00 00                	add    BYTE PTR [rax],al
	...

00000001400091e0 <.idata$4>:
   1400091e0:	92                   	xchg   edx,eax
   1400091e1:	96                   	xchg   esi,eax
   1400091e2:	00 00                	add    BYTE PTR [rax],al
   1400091e4:	00 00                	add    BYTE PTR [rax],al
	...

00000001400091e8 <.idata$4>:
   1400091e8:	b2 96                	mov    dl,0x96
   1400091ea:	00 00                	add    BYTE PTR [rax],al
   1400091ec:	00 00                	add    BYTE PTR [rax],al
	...

00000001400091f0 <.idata$4>:
   1400091f0:	be 96 00 00 00       	mov    esi,0x96
   1400091f5:	00 00                	add    BYTE PTR [rax],al
	...

00000001400091f8 <.idata$4>:
   1400091f8:	ce                   	(bad)
   1400091f9:	96                   	xchg   esi,eax
   1400091fa:	00 00                	add    BYTE PTR [rax],al
   1400091fc:	00 00                	add    BYTE PTR [rax],al
	...

0000000140009200 <.idata$4>:
   140009200:	f0 96                	lock xchg esi,eax
   140009202:	00 00                	add    BYTE PTR [rax],al
   140009204:	00 00                	add    BYTE PTR [rax],al
	...

0000000140009208 <.idata$4>:
   140009208:	f8                   	clc
   140009209:	96                   	xchg   esi,eax
   14000920a:	00 00                	add    BYTE PTR [rax],al
   14000920c:	00 00                	add    BYTE PTR [rax],al
	...

0000000140009210 <.idata$4>:
   140009210:	00 97 00 00 00 00    	add    BYTE PTR [rdi+0x0],dl
	...

0000000140009218 <.idata$4>:
	...

0000000140009220 <hname>:
   140009220:	0a 97 00 00 00 00    	or     dl,BYTE PTR [rdi+0x0]
	...

0000000140009228 <.idata$4>:
   140009228:	1c 97                	sbb    al,0x97
   14000922a:	00 00                	add    BYTE PTR [rax],al
   14000922c:	00 00                	add    BYTE PTR [rax],al
	...

0000000140009230 <.idata$4>:
   140009230:	2c 97                	sub    al,0x97
   140009232:	00 00                	add    BYTE PTR [rax],al
   140009234:	00 00                	add    BYTE PTR [rax],al
	...

0000000140009238 <.idata$4>:
   140009238:	3a 97 00 00 00 00    	cmp    dl,BYTE PTR [rdi+0x0]
	...

0000000140009240 <.idata$4>:
   140009240:	54                   	push   rsp
   140009241:	97                   	xchg   edi,eax
   140009242:	00 00                	add    BYTE PTR [rax],al
   140009244:	00 00                	add    BYTE PTR [rax],al
	...

0000000140009248 <.idata$4>:
   140009248:	70 97                	jo     1400091e1 <.idata$4+0x1>
   14000924a:	00 00                	add    BYTE PTR [rax],al
   14000924c:	00 00                	add    BYTE PTR [rax],al
	...

0000000140009250 <.idata$4>:
   140009250:	7a 97                	jp     1400091e9 <.idata$4+0x1>
   140009252:	00 00                	add    BYTE PTR [rax],al
   140009254:	00 00                	add    BYTE PTR [rax],al
	...

0000000140009258 <.idata$4>:
   140009258:	82                   	(bad)
   140009259:	97                   	xchg   edi,eax
   14000925a:	00 00                	add    BYTE PTR [rax],al
   14000925c:	00 00                	add    BYTE PTR [rax],al
	...

0000000140009260 <.idata$4>:
	...

0000000140009268 <hname>:
   140009268:	8c 97 00 00 00 00    	mov    WORD PTR [rdi+0x0],ss
	...

0000000140009270 <.idata$4>:
   140009270:	96                   	xchg   esi,eax
   140009271:	97                   	xchg   edi,eax
   140009272:	00 00                	add    BYTE PTR [rax],al
   140009274:	00 00                	add    BYTE PTR [rax],al
	...

0000000140009278 <.idata$4>:
	...

0000000140009280 <hname>:
   140009280:	a0 97 00 00 00 00 00 	movabs al,ds:0xae00000000000097
   140009287:	00  

0000000140009288 <.idata$4>:
   140009288:	ae                   	scas   al,BYTE PTR es:[rdi]
   140009289:	97                   	xchg   edi,eax
   14000928a:	00 00                	add    BYTE PTR [rax],al
   14000928c:	00 00                	add    BYTE PTR [rax],al
	...

0000000140009290 <.idata$4>:
   140009290:	bc 97 00 00 00       	mov    esp,0x97
   140009295:	00 00                	add    BYTE PTR [rax],al
	...

0000000140009298 <.idata$4>:
   140009298:	c8 97 00 00          	enter  0x97,0x0
   14000929c:	00 00                	add    BYTE PTR [rax],al
	...

00000001400092a0 <.idata$4>:
	...

00000001400092a8 <__IAT_start__>:
   1400092a8:	88 94 00 00 00 00 00 	mov    BYTE PTR [rax+rax*1+0x0],dl
	...

00000001400092b0 <__imp_EnterCriticalSection>:
   1400092b0:	a0 94 00 00 00 00 00 	movabs al,ds:0xb800000000000094
   1400092b7:	00  

00000001400092b8 <__imp_GetLastError>:
   1400092b8:	b8 94 00 00 00       	mov    eax,0x94
   1400092bd:	00 00                	add    BYTE PTR [rax],al
	...

00000001400092c0 <__imp_InitializeCriticalSection>:
   1400092c0:	c8 94 00 00          	enter  0x94,0x0
   1400092c4:	00 00                	add    BYTE PTR [rax],al
	...

00000001400092c8 <__imp_LeaveCriticalSection>:
   1400092c8:	e4 94                	in     al,0x94
   1400092ca:	00 00                	add    BYTE PTR [rax],al
   1400092cc:	00 00                	add    BYTE PTR [rax],al
	...

00000001400092d0 <__imp_SetUnhandledExceptionFilter>:
   1400092d0:	fc                   	cld
   1400092d1:	94                   	xchg   esp,eax
   1400092d2:	00 00                	add    BYTE PTR [rax],al
   1400092d4:	00 00                	add    BYTE PTR [rax],al
	...

00000001400092d8 <__imp_Sleep>:
   1400092d8:	1a 95 00 00 00 00    	sbb    dl,BYTE PTR [rbp+0x0]
	...

00000001400092e0 <__imp_TlsGetValue>:
   1400092e0:	22 95 00 00 00 00    	and    dl,BYTE PTR [rbp+0x0]
	...

00000001400092e8 <__imp_VirtualProtect>:
   1400092e8:	30 95 00 00 00 00    	xor    BYTE PTR [rbp+0x0],dl
	...

00000001400092f0 <__imp_VirtualQuery>:
   1400092f0:	42 95                	rex.X xchg ebp,eax
   1400092f2:	00 00                	add    BYTE PTR [rax],al
   1400092f4:	00 00                	add    BYTE PTR [rax],al
	...

00000001400092f8 <.idata$5>:
	...

0000000140009300 <__imp___p__environ>:
   140009300:	52                   	push   rdx
   140009301:	95                   	xchg   ebp,eax
   140009302:	00 00                	add    BYTE PTR [rax],al
   140009304:	00 00                	add    BYTE PTR [rax],al
	...

0000000140009308 <__imp___p__wenviron>:
   140009308:	62 95                	(bad)
   14000930a:	00 00                	add    BYTE PTR [rax],al
   14000930c:	00 00                	add    BYTE PTR [rax],al
	...

0000000140009310 <.idata$5>:
	...

0000000140009318 <__imp__set_new_mode>:
   140009318:	72 95                	jb     1400092af <__IAT_start__+0x7>
   14000931a:	00 00                	add    BYTE PTR [rax],al
   14000931c:	00 00                	add    BYTE PTR [rax],al
	...

0000000140009320 <__imp_calloc>:
   140009320:	82                   	(bad)
   140009321:	95                   	xchg   ebp,eax
   140009322:	00 00                	add    BYTE PTR [rax],al
